MPLINK 5.09, LINKER
Linker Map File - Created Wed Mar 27 14:40:39 2019

                                 Section Info
                  Section       Type    Address   Location Size(Bytes)
                ---------  ---------  ---------  ---------  ---------
                 RES_VECT       code   0x000000    program   0x000008
                      ISR       code   0x000004    program   0x0007a6
                   .cinit    romdata   0x0003d7    program   0x000004
                MAIN_PROG       code   0x0003d9    program   0x0000fe
                   .org_0       code   0x000780    program   0x000000
.config_8007_BUILD/DEFAULT/DEBUG/BREAKOUT1572       code   0x008007    program   0x000002
.config_8008_BUILD/DEFAULT/DEBUG/BREAKOUT1572       code   0x008008    program   0x000002
                   .udata      udata   0x000020       data   0x000050
               .udata_shr      udata   0x000070       data   0x000010
                  v_array      udata   0x0000a0       data   0x000040



                              Program Memory Usage 
                               Start         End      
                           ---------   ---------      
                            0x000000    0x000457      
                            0x008007    0x008008      
            1114 out of 2055 program addresses used, program memory utilization is 54%



                              Symbols - Sorted by Name
                     Name    Address   Location    Storage File                     
                ---------  ---------  ---------  --------- ---------                
                   _3ntcy   0x000001    program     static /home/jacques/github/breakout_1572/breakout_1572.X/breakout1572.asm
                    _4tcy   0x000003    program     static /home/jacques/github/breakout_1572/breakout_1572.X/breakout1572.asm
                    _5tcy   0x000399    program     static /home/jacques/github/breakout_1572/breakout_1572.X/breakout1572.asm
                _ISR_007D   0x00007d    program     static /home/jacques/github/breakout_1572/breakout_1572.X/breakout1572.asm
                _ISR_0095   0x000095    program     static /home/jacques/github/breakout_1572/breakout_1572.X/breakout1572.asm
                _ISR_0171   0x000171    program     static /home/jacques/github/breakout_1572/breakout_1572.X/breakout1572.asm
                _ISR_02BF   0x0002bf    program     static /home/jacques/github/breakout_1572/breakout_1572.X/breakout1572.asm
                _ISR_02C2   0x0002c2    program     static /home/jacques/github/breakout_1572/breakout_1572.X/breakout1572.asm
                _ISR_0369   0x000369    program     static /home/jacques/github/breakout_1572/breakout_1572.X/breakout1572.asm
                _ISR_036E   0x00036e    program     static /home/jacques/github/breakout_1572/breakout_1572.X/breakout1572.asm
                _ISR_03BF   0x0003bf    program     static /home/jacques/github/breakout_1572/breakout_1572.X/breakout1572.asm
          _MAIN_PROG_0005   0x0003de    program     static /home/jacques/github/breakout_1572/breakout_1572.X/breakout1572.asm
          _MAIN_PROG_0038   0x000411    program     static /home/jacques/github/breakout_1572/breakout_1572.X/breakout1572.asm
           _RES_VECT_0002   0x000002    program     static /home/jacques/github/breakout_1572/breakout_1572.X/breakout1572.asm
                add_score   0x00015e    program     static /home/jacques/github/breakout_1572/breakout_1572.X/breakout1572.asm
            ball_bouncing   0x00011e    program     static /home/jacques/github/breakout_1572/breakout_1572.X/breakout1572.asm
                ball_lost   0x000101    program     static /home/jacques/github/breakout_1572/breakout_1572.X/breakout1572.asm
             ball_visible   0x00017a    program     static /home/jacques/github/breakout_1572/breakout_1572.X/breakout1572.asm
                  between   0x000165    program     static /home/jacques/github/breakout_1572/breakout_1572.X/breakout1572.asm
             between_exit   0x00016f    program     static /home/jacques/github/breakout_1572/breakout_1572.X/breakout1572.asm
            between_exit2   0x000171    program     static /home/jacques/github/breakout_1572/breakout_1572.X/breakout1572.asm
          brick_wall_init   0x00038a    program     static /home/jacques/github/breakout_1572/breakout_1572.X/breakout1572.asm
                  bw_init   0x000391    program     static /home/jacques/github/breakout_1572/breakout_1572.X/breakout1572.asm
              clr_pwm_sfr   0x0003f0    program     static /home/jacques/github/breakout_1572/breakout_1572.X/breakout1572.asm
                collision   0x00012e    program     static /home/jacques/github/breakout_1572/breakout_1572.X/breakout1572.asm
           collision_exit   0x000163    program     static /home/jacques/github/breakout_1572/breakout_1572.X/breakout1572.asm
                 cool_msg   0x00044e    program     static /home/jacques/github/breakout_1572/breakout_1572.X/breakout1572.asm
                 copy_msg   0x00031b    program     static /home/jacques/github/breakout_1572/breakout_1572.X/breakout1572.asm
                 copy_row   0x0002cc    program     static /home/jacques/github/breakout_1572/breakout_1572.X/breakout1572.asm
         create_ball_mask   0x0003b0    program     static /home/jacques/github/breakout_1572/breakout_1572.X/breakout1572.asm
             digit_offset   0x00041a    program     static /home/jacques/github/breakout_1572/breakout_1572.X/breakout1572.asm
                digit_row   0x000425    program     static /home/jacques/github/breakout_1572/breakout_1572.X/breakout1572.asm
                   digits   0x000412    program     static /home/jacques/github/breakout_1572/breakout_1572.X/breakout1572.asm
          display_vbuffer   0x000181    program     static /home/jacques/github/breakout_1572/breakout_1572.X/breakout1572.asm
        display_vbuffer_2   0x000184    program     static /home/jacques/github/breakout_1572/breakout_1572.X/breakout1572.asm
              draw_bricks   0x0002e6    program     static /home/jacques/github/breakout_1572/breakout_1572.X/breakout1572.asm
               draw_empty   0x000303    program     static /home/jacques/github/breakout_1572/breakout_1572.X/breakout1572.asm
          draw_empty_exit   0x00032d    program     static /home/jacques/github/breakout_1572/breakout_1572.X/breakout1572.asm
              draw_paddle   0x000335    program     static /home/jacques/github/breakout_1572/breakout_1572.X/breakout1572.asm
               draw_score   0x00027a    program     static /home/jacques/github/breakout_1572/breakout_1572.X/breakout1572.asm
               draw_sides   0x0002c2    program     static /home/jacques/github/breakout_1572/breakout_1572.X/breakout1572.asm
            draw_top_wall   0x000296    program     static /home/jacques/github/breakout_1572/breakout_1572.X/breakout1572.asm
                   eeprom   0x000780    program     static /home/jacques/github/breakout_1572/breakout_1572.X/breakout1572.asm
             empty_common   0x0002ba    program     static /home/jacques/github/breakout_1572/breakout_1572.X/breakout1572.asm
                  end_msg   0x000444    program     static /home/jacques/github/breakout_1572/breakout_1572.X/breakout1572.asm
               even_field   0x000355    program     static /home/jacques/github/breakout_1572/breakout_1572.X/breakout1572.asm
                field_end   0x00035f    program     static /home/jacques/github/breakout_1572/breakout_1572.X/breakout1572.asm
              freeze_ball   0x00010a    program     static /home/jacques/github/breakout_1572/breakout_1572.X/breakout1572.asm
                frequency   0x00043f    program     static /home/jacques/github/breakout_1572/breakout_1572.X/breakout1572.asm
                game_init   0x0003c1    program     static /home/jacques/github/breakout_1572/breakout_1572.X/breakout1572.asm
           game_over_test   0x00037f    program     static /home/jacques/github/breakout_1572/breakout_1572.X/breakout1572.asm
                  hi_line   0x00034e    program     static /home/jacques/github/breakout_1572/breakout_1572.X/breakout1572.asm
                inc_score   0x000367    program     static /home/jacques/github/breakout_1572/breakout_1572.X/breakout1572.asm
               initialize   0x0003d9    program     static /home/jacques/github/breakout_1572/breakout_1572.X/breakout1572.asm
                      isr   0x000004    program     static /home/jacques/github/breakout_1572/breakout_1572.X/breakout1572.asm
                 isr_exit   0x00002d    program     static /home/jacques/github/breakout_1572/breakout_1572.X/breakout1572.asm
                kill_time   0x0002b6    program     static /home/jacques/github/breakout_1572/breakout_1572.X/breakout1572.asm
                    lfsr8   0x000395    program     static /home/jacques/github/breakout_1572/breakout_1572.X/breakout1572.asm
                move_ball   0x0000d7    program     static /home/jacques/github/breakout_1572/breakout_1572.X/breakout1572.asm
           move_ball_exit   0x000111    program     static /home/jacques/github/breakout_1572/breakout_1572.X/breakout1572.asm
                    msg01   0x000328    program     static /home/jacques/github/breakout_1572/breakout_1572.X/breakout1572.asm
                    msg02   0x00032a    program     static /home/jacques/github/breakout_1572/breakout_1572.X/breakout1572.asm
            paddle_bounce   0x000113    program     static /home/jacques/github/breakout_1572/breakout_1572.X/breakout1572.asm
             paddle_sound   0x000128    program     static /home/jacques/github/breakout_1572/breakout_1572.X/breakout1572.asm
               pause_game   0x000105    program     static /home/jacques/github/breakout_1572/breakout_1572.X/breakout1572.asm
               pong_sound   0x00015f    program     static /home/jacques/github/breakout_1572/breakout_1572.X/breakout1572.asm
                post_last   0x000064    program     static /home/jacques/github/breakout_1572/breakout_1572.X/breakout1572.asm
               post_vsync   0x00005b    program     static /home/jacques/github/breakout_1572/breakout_1572.X/breakout1572.asm
                pre_vsync   0x000033    program     static /home/jacques/github/breakout_1572/breakout_1572.X/breakout1572.asm
                print_msg   0x000307    program     static /home/jacques/github/breakout_1572/breakout_1572.X/breakout1572.asm
       put_ball_in_buffer   0x0002a9    program     static /home/jacques/github/breakout_1572/breakout_1572.X/breakout1572.asm
              read_button   0x0000c8    program     static /home/jacques/github/breakout_1572/breakout_1572.X/breakout1572.asm
              read_paddle   0x000076    program     static /home/jacques/github/breakout_1572/breakout_1572.X/breakout1572.asm
         read_paddle_exit   0x000096    program     static /home/jacques/github/breakout_1572/breakout_1572.X/breakout1572.asm
                   resume   0x0003cc    program     static /home/jacques/github/breakout_1572/breakout_1572.X/breakout1572.asm
              resume_game   0x0000d3    program     static /home/jacques/github/breakout_1572/breakout_1572.X/breakout1572.asm
              rows_common   0x0002d9    program     static /home/jacques/github/breakout_1572/breakout_1572.X/breakout1572.asm
               score_exit   0x00028e    program     static /home/jacques/github/breakout_1572/breakout_1572.X/breakout1572.asm
              set_ball_dx   0x00039b    program     static /home/jacques/github/breakout_1572/breakout_1572.X/breakout1572.asm
         set_ball_dx_exit   0x0003ae    program     static /home/jacques/github/breakout_1572/breakout_1572.X/breakout1572.asm
                   set_dx   0x000127    program     static /home/jacques/github/breakout_1572/breakout_1572.X/breakout1572.asm
              set_presync   0x00003e    program     static /home/jacques/github/breakout_1572/breakout_1572.X/breakout1572.asm
                set_vsync   0x000053    program     static /home/jacques/github/breakout_1572/breakout_1572.X/breakout1572.asm
                    sound   0x000099    program     static /home/jacques/github/breakout_1572/breakout_1572.X/breakout1572.asm
                sound_fx1   0x0000a8    program     static /home/jacques/github/breakout_1572/breakout_1572.X/breakout1572.asm
               sound_init   0x0000b1    program     static /home/jacques/github/breakout_1572/breakout_1572.X/breakout1572.asm
                sound_off   0x0000a1    program     static /home/jacques/github/breakout_1572/breakout_1572.X/breakout1572.asm
              task_switch   0x000019    program     static /home/jacques/github/breakout_1572/breakout_1572.X/breakout1572.asm
             track_paddle   0x0003d0    program     static /home/jacques/github/breakout_1572/breakout_1572.X/breakout1572.asm
              video_first   0x000173    program     static /home/jacques/github/breakout_1572/breakout_1572.X/breakout1572.asm
                    vsync   0x000048    program     static /home/jacques/github/breakout_1572/breakout_1572.X/breakout1572.asm
                vsync_end   0x000068    program     static /home/jacques/github/breakout_1572/breakout_1572.X/breakout1572.asm
           wait_field_end   0x00034b    program     static /home/jacques/github/breakout_1572/breakout_1572.X/breakout1572.asm
                 y_bounds   0x0000ef    program     static /home/jacques/github/breakout_1572/breakout_1572.X/breakout1572.asm
                ball_byte   0x0000db       data     static /home/jacques/github/breakout_1572/breakout_1572.X/breakout1572.asm
                  ball_dx   0x000079       data     static /home/jacques/github/breakout_1572/breakout_1572.X/breakout1572.asm
                  ball_dy   0x00007a       data     static /home/jacques/github/breakout_1572/breakout_1572.X/breakout1572.asm
                ball_mask   0x0000dc       data     static /home/jacques/github/breakout_1572/breakout_1572.X/breakout1572.asm
               ball_speed   0x00007b       data     static /home/jacques/github/breakout_1572/breakout_1572.X/breakout1572.asm
               ball_timer   0x00007e       data     static /home/jacques/github/breakout_1572/breakout_1572.X/breakout1572.asm
                   ball_x   0x000077       data     static /home/jacques/github/breakout_1572/breakout_1572.X/breakout1572.asm
                   ball_y   0x000078       data     static /home/jacques/github/breakout_1572/breakout_1572.X/breakout1572.asm
                    balls   0x0000df       data     static /home/jacques/github/breakout_1572/breakout_1572.X/breakout1572.asm
                 fg_color   0x0000d7       data     static /home/jacques/github/breakout_1572/breakout_1572.X/breakout1572.asm
                    fill1   0x0000ad       data     static /home/jacques/github/breakout_1572/breakout_1572.X/breakout1572.asm
                    fill2   0x0000b5       data     static /home/jacques/github/breakout_1572/breakout_1572.X/breakout1572.asm
                    fill3   0x0000bd       data     static /home/jacques/github/breakout_1572/breakout_1572.X/breakout1572.asm
                    fill4   0x0000c5       data     static /home/jacques/github/breakout_1572/breakout_1572.X/breakout1572.asm
                    fill5   0x0000cd       data     static /home/jacques/github/breakout_1572/breakout_1572.X/breakout1572.asm
                    fill6   0x0000d5       data     static /home/jacques/github/breakout_1572/breakout_1572.X/breakout1572.asm
                    flags   0x000070       data     static /home/jacques/github/breakout_1572/breakout_1572.X/breakout1572.asm
                   lcount   0x000071       data     static /home/jacques/github/breakout_1572/breakout_1572.X/breakout1572.asm
              paddle_byte   0x0000d8       data     static /home/jacques/github/breakout_1572/breakout_1572.X/breakout1572.asm
              paddle_mask   0x0000d9       data     static /home/jacques/github/breakout_1572/breakout_1572.X/breakout1572.asm
               paddle_pos   0x000076       data     static /home/jacques/github/breakout_1572/breakout_1572.X/breakout1572.asm
                     row1   0x0000a7       data     static /home/jacques/github/breakout_1572/breakout_1572.X/breakout1572.asm
                     row2   0x0000af       data     static /home/jacques/github/breakout_1572/breakout_1572.X/breakout1572.asm
                     row3   0x0000b7       data     static /home/jacques/github/breakout_1572/breakout_1572.X/breakout1572.asm
                     row4   0x0000bf       data     static /home/jacques/github/breakout_1572/breakout_1572.X/breakout1572.asm
                     row5   0x0000c7       data     static /home/jacques/github/breakout_1572/breakout_1572.X/breakout1572.asm
                     row6   0x0000cf       data     static /home/jacques/github/breakout_1572/breakout_1572.X/breakout1572.asm
                    score   0x00007c       data     static /home/jacques/github/breakout_1572/breakout_1572.X/breakout1572.asm
                     seed   0x00007f       data     static /home/jacques/github/breakout_1572/breakout_1572.X/breakout1572.asm
                    slice   0x000072       data     static /home/jacques/github/breakout_1572/breakout_1572.X/breakout1572.asm
              sound_timer   0x0000de       data     static /home/jacques/github/breakout_1572/breakout_1572.X/breakout1572.asm
                    stack   0x000020       data     static /home/jacques/github/breakout_1572/breakout_1572.X/breakout1572.asm
                     task   0x000073       data     static /home/jacques/github/breakout_1572/breakout_1572.X/breakout1572.asm
                    temp1   0x000074       data     static /home/jacques/github/breakout_1572/breakout_1572.X/breakout1572.asm
                    temp2   0x000075       data     static /home/jacques/github/breakout_1572/breakout_1572.X/breakout1572.asm
                    temp3   0x0000a6       data     static /home/jacques/github/breakout_1572/breakout_1572.X/breakout1572.asm
                  vbuffer   0x0000a0       data     static /home/jacques/github/breakout_1572/breakout_1572.X/breakout1572.asm



                              Symbols - Sorted by Address
                     Name    Address   Location    Storage File                     
                ---------  ---------  ---------  --------- ---------                
                   _3ntcy   0x000001    program     static /home/jacques/github/breakout_1572/breakout_1572.X/breakout1572.asm
           _RES_VECT_0002   0x000002    program     static /home/jacques/github/breakout_1572/breakout_1572.X/breakout1572.asm
                    _4tcy   0x000003    program     static /home/jacques/github/breakout_1572/breakout_1572.X/breakout1572.asm
                      isr   0x000004    program     static /home/jacques/github/breakout_1572/breakout_1572.X/breakout1572.asm
              task_switch   0x000019    program     static /home/jacques/github/breakout_1572/breakout_1572.X/breakout1572.asm
                 isr_exit   0x00002d    program     static /home/jacques/github/breakout_1572/breakout_1572.X/breakout1572.asm
                pre_vsync   0x000033    program     static /home/jacques/github/breakout_1572/breakout_1572.X/breakout1572.asm
              set_presync   0x00003e    program     static /home/jacques/github/breakout_1572/breakout_1572.X/breakout1572.asm
                    vsync   0x000048    program     static /home/jacques/github/breakout_1572/breakout_1572.X/breakout1572.asm
                set_vsync   0x000053    program     static /home/jacques/github/breakout_1572/breakout_1572.X/breakout1572.asm
               post_vsync   0x00005b    program     static /home/jacques/github/breakout_1572/breakout_1572.X/breakout1572.asm
                post_last   0x000064    program     static /home/jacques/github/breakout_1572/breakout_1572.X/breakout1572.asm
                vsync_end   0x000068    program     static /home/jacques/github/breakout_1572/breakout_1572.X/breakout1572.asm
              read_paddle   0x000076    program     static /home/jacques/github/breakout_1572/breakout_1572.X/breakout1572.asm
                _ISR_007D   0x00007d    program     static /home/jacques/github/breakout_1572/breakout_1572.X/breakout1572.asm
                _ISR_0095   0x000095    program     static /home/jacques/github/breakout_1572/breakout_1572.X/breakout1572.asm
         read_paddle_exit   0x000096    program     static /home/jacques/github/breakout_1572/breakout_1572.X/breakout1572.asm
                    sound   0x000099    program     static /home/jacques/github/breakout_1572/breakout_1572.X/breakout1572.asm
                sound_off   0x0000a1    program     static /home/jacques/github/breakout_1572/breakout_1572.X/breakout1572.asm
                sound_fx1   0x0000a8    program     static /home/jacques/github/breakout_1572/breakout_1572.X/breakout1572.asm
               sound_init   0x0000b1    program     static /home/jacques/github/breakout_1572/breakout_1572.X/breakout1572.asm
              read_button   0x0000c8    program     static /home/jacques/github/breakout_1572/breakout_1572.X/breakout1572.asm
              resume_game   0x0000d3    program     static /home/jacques/github/breakout_1572/breakout_1572.X/breakout1572.asm
                move_ball   0x0000d7    program     static /home/jacques/github/breakout_1572/breakout_1572.X/breakout1572.asm
                 y_bounds   0x0000ef    program     static /home/jacques/github/breakout_1572/breakout_1572.X/breakout1572.asm
                ball_lost   0x000101    program     static /home/jacques/github/breakout_1572/breakout_1572.X/breakout1572.asm
               pause_game   0x000105    program     static /home/jacques/github/breakout_1572/breakout_1572.X/breakout1572.asm
              freeze_ball   0x00010a    program     static /home/jacques/github/breakout_1572/breakout_1572.X/breakout1572.asm
           move_ball_exit   0x000111    program     static /home/jacques/github/breakout_1572/breakout_1572.X/breakout1572.asm
            paddle_bounce   0x000113    program     static /home/jacques/github/breakout_1572/breakout_1572.X/breakout1572.asm
            ball_bouncing   0x00011e    program     static /home/jacques/github/breakout_1572/breakout_1572.X/breakout1572.asm
                   set_dx   0x000127    program     static /home/jacques/github/breakout_1572/breakout_1572.X/breakout1572.asm
             paddle_sound   0x000128    program     static /home/jacques/github/breakout_1572/breakout_1572.X/breakout1572.asm
                collision   0x00012e    program     static /home/jacques/github/breakout_1572/breakout_1572.X/breakout1572.asm
                add_score   0x00015e    program     static /home/jacques/github/breakout_1572/breakout_1572.X/breakout1572.asm
               pong_sound   0x00015f    program     static /home/jacques/github/breakout_1572/breakout_1572.X/breakout1572.asm
           collision_exit   0x000163    program     static /home/jacques/github/breakout_1572/breakout_1572.X/breakout1572.asm
                  between   0x000165    program     static /home/jacques/github/breakout_1572/breakout_1572.X/breakout1572.asm
             between_exit   0x00016f    program     static /home/jacques/github/breakout_1572/breakout_1572.X/breakout1572.asm
            between_exit2   0x000171    program     static /home/jacques/github/breakout_1572/breakout_1572.X/breakout1572.asm
                _ISR_0171   0x000171    program     static /home/jacques/github/breakout_1572/breakout_1572.X/breakout1572.asm
              video_first   0x000173    program     static /home/jacques/github/breakout_1572/breakout_1572.X/breakout1572.asm
             ball_visible   0x00017a    program     static /home/jacques/github/breakout_1572/breakout_1572.X/breakout1572.asm
          display_vbuffer   0x000181    program     static /home/jacques/github/breakout_1572/breakout_1572.X/breakout1572.asm
        display_vbuffer_2   0x000184    program     static /home/jacques/github/breakout_1572/breakout_1572.X/breakout1572.asm
               draw_score   0x00027a    program     static /home/jacques/github/breakout_1572/breakout_1572.X/breakout1572.asm
               score_exit   0x00028e    program     static /home/jacques/github/breakout_1572/breakout_1572.X/breakout1572.asm
            draw_top_wall   0x000296    program     static /home/jacques/github/breakout_1572/breakout_1572.X/breakout1572.asm
       put_ball_in_buffer   0x0002a9    program     static /home/jacques/github/breakout_1572/breakout_1572.X/breakout1572.asm
                kill_time   0x0002b6    program     static /home/jacques/github/breakout_1572/breakout_1572.X/breakout1572.asm
             empty_common   0x0002ba    program     static /home/jacques/github/breakout_1572/breakout_1572.X/breakout1572.asm
                _ISR_02BF   0x0002bf    program     static /home/jacques/github/breakout_1572/breakout_1572.X/breakout1572.asm
                _ISR_02C2   0x0002c2    program     static /home/jacques/github/breakout_1572/breakout_1572.X/breakout1572.asm
               draw_sides   0x0002c2    program     static /home/jacques/github/breakout_1572/breakout_1572.X/breakout1572.asm
                 copy_row   0x0002cc    program     static /home/jacques/github/breakout_1572/breakout_1572.X/breakout1572.asm
              rows_common   0x0002d9    program     static /home/jacques/github/breakout_1572/breakout_1572.X/breakout1572.asm
              draw_bricks   0x0002e6    program     static /home/jacques/github/breakout_1572/breakout_1572.X/breakout1572.asm
               draw_empty   0x000303    program     static /home/jacques/github/breakout_1572/breakout_1572.X/breakout1572.asm
                print_msg   0x000307    program     static /home/jacques/github/breakout_1572/breakout_1572.X/breakout1572.asm
                 copy_msg   0x00031b    program     static /home/jacques/github/breakout_1572/breakout_1572.X/breakout1572.asm
                    msg01   0x000328    program     static /home/jacques/github/breakout_1572/breakout_1572.X/breakout1572.asm
                    msg02   0x00032a    program     static /home/jacques/github/breakout_1572/breakout_1572.X/breakout1572.asm
          draw_empty_exit   0x00032d    program     static /home/jacques/github/breakout_1572/breakout_1572.X/breakout1572.asm
              draw_paddle   0x000335    program     static /home/jacques/github/breakout_1572/breakout_1572.X/breakout1572.asm
           wait_field_end   0x00034b    program     static /home/jacques/github/breakout_1572/breakout_1572.X/breakout1572.asm
                  hi_line   0x00034e    program     static /home/jacques/github/breakout_1572/breakout_1572.X/breakout1572.asm
               even_field   0x000355    program     static /home/jacques/github/breakout_1572/breakout_1572.X/breakout1572.asm
                field_end   0x00035f    program     static /home/jacques/github/breakout_1572/breakout_1572.X/breakout1572.asm
                inc_score   0x000367    program     static /home/jacques/github/breakout_1572/breakout_1572.X/breakout1572.asm
                _ISR_0369   0x000369    program     static /home/jacques/github/breakout_1572/breakout_1572.X/breakout1572.asm
                _ISR_036E   0x00036e    program     static /home/jacques/github/breakout_1572/breakout_1572.X/breakout1572.asm
           game_over_test   0x00037f    program     static /home/jacques/github/breakout_1572/breakout_1572.X/breakout1572.asm
          brick_wall_init   0x00038a    program     static /home/jacques/github/breakout_1572/breakout_1572.X/breakout1572.asm
                  bw_init   0x000391    program     static /home/jacques/github/breakout_1572/breakout_1572.X/breakout1572.asm
                    lfsr8   0x000395    program     static /home/jacques/github/breakout_1572/breakout_1572.X/breakout1572.asm
                    _5tcy   0x000399    program     static /home/jacques/github/breakout_1572/breakout_1572.X/breakout1572.asm
              set_ball_dx   0x00039b    program     static /home/jacques/github/breakout_1572/breakout_1572.X/breakout1572.asm
         set_ball_dx_exit   0x0003ae    program     static /home/jacques/github/breakout_1572/breakout_1572.X/breakout1572.asm
         create_ball_mask   0x0003b0    program     static /home/jacques/github/breakout_1572/breakout_1572.X/breakout1572.asm
                _ISR_03BF   0x0003bf    program     static /home/jacques/github/breakout_1572/breakout_1572.X/breakout1572.asm
                game_init   0x0003c1    program     static /home/jacques/github/breakout_1572/breakout_1572.X/breakout1572.asm
                   resume   0x0003cc    program     static /home/jacques/github/breakout_1572/breakout_1572.X/breakout1572.asm
             track_paddle   0x0003d0    program     static /home/jacques/github/breakout_1572/breakout_1572.X/breakout1572.asm
               initialize   0x0003d9    program     static /home/jacques/github/breakout_1572/breakout_1572.X/breakout1572.asm
          _MAIN_PROG_0005   0x0003de    program     static /home/jacques/github/breakout_1572/breakout_1572.X/breakout1572.asm
              clr_pwm_sfr   0x0003f0    program     static /home/jacques/github/breakout_1572/breakout_1572.X/breakout1572.asm
          _MAIN_PROG_0038   0x000411    program     static /home/jacques/github/breakout_1572/breakout_1572.X/breakout1572.asm
                   digits   0x000412    program     static /home/jacques/github/breakout_1572/breakout_1572.X/breakout1572.asm
             digit_offset   0x00041a    program     static /home/jacques/github/breakout_1572/breakout_1572.X/breakout1572.asm
                digit_row   0x000425    program     static /home/jacques/github/breakout_1572/breakout_1572.X/breakout1572.asm
                frequency   0x00043f    program     static /home/jacques/github/breakout_1572/breakout_1572.X/breakout1572.asm
                  end_msg   0x000444    program     static /home/jacques/github/breakout_1572/breakout_1572.X/breakout1572.asm
                 cool_msg   0x00044e    program     static /home/jacques/github/breakout_1572/breakout_1572.X/breakout1572.asm
                   eeprom   0x000780    program     static /home/jacques/github/breakout_1572/breakout_1572.X/breakout1572.asm
                    stack   0x000020       data     static /home/jacques/github/breakout_1572/breakout_1572.X/breakout1572.asm
                    flags   0x000070       data     static /home/jacques/github/breakout_1572/breakout_1572.X/breakout1572.asm
                   lcount   0x000071       data     static /home/jacques/github/breakout_1572/breakout_1572.X/breakout1572.asm
                    slice   0x000072       data     static /home/jacques/github/breakout_1572/breakout_1572.X/breakout1572.asm
                     task   0x000073       data     static /home/jacques/github/breakout_1572/breakout_1572.X/breakout1572.asm
                    temp1   0x000074       data     static /home/jacques/github/breakout_1572/breakout_1572.X/breakout1572.asm
                    temp2   0x000075       data     static /home/jacques/github/breakout_1572/breakout_1572.X/breakout1572.asm
               paddle_pos   0x000076       data     static /home/jacques/github/breakout_1572/breakout_1572.X/breakout1572.asm
                   ball_x   0x000077       data     static /home/jacques/github/breakout_1572/breakout_1572.X/breakout1572.asm
                   ball_y   0x000078       data     static /home/jacques/github/breakout_1572/breakout_1572.X/breakout1572.asm
                  ball_dx   0x000079       data     static /home/jacques/github/breakout_1572/breakout_1572.X/breakout1572.asm
                  ball_dy   0x00007a       data     static /home/jacques/github/breakout_1572/breakout_1572.X/breakout1572.asm
               ball_speed   0x00007b       data     static /home/jacques/github/breakout_1572/breakout_1572.X/breakout1572.asm
                    score   0x00007c       data     static /home/jacques/github/breakout_1572/breakout_1572.X/breakout1572.asm
               ball_timer   0x00007e       data     static /home/jacques/github/breakout_1572/breakout_1572.X/breakout1572.asm
                     seed   0x00007f       data     static /home/jacques/github/breakout_1572/breakout_1572.X/breakout1572.asm
                  vbuffer   0x0000a0       data     static /home/jacques/github/breakout_1572/breakout_1572.X/breakout1572.asm
                    temp3   0x0000a6       data     static /home/jacques/github/breakout_1572/breakout_1572.X/breakout1572.asm
                     row1   0x0000a7       data     static /home/jacques/github/breakout_1572/breakout_1572.X/breakout1572.asm
                    fill1   0x0000ad       data     static /home/jacques/github/breakout_1572/breakout_1572.X/breakout1572.asm
                     row2   0x0000af       data     static /home/jacques/github/breakout_1572/breakout_1572.X/breakout1572.asm
                    fill2   0x0000b5       data     static /home/jacques/github/breakout_1572/breakout_1572.X/breakout1572.asm
                     row3   0x0000b7       data     static /home/jacques/github/breakout_1572/breakout_1572.X/breakout1572.asm
                    fill3   0x0000bd       data     static /home/jacques/github/breakout_1572/breakout_1572.X/breakout1572.asm
                     row4   0x0000bf       data     static /home/jacques/github/breakout_1572/breakout_1572.X/breakout1572.asm
                    fill4   0x0000c5       data     static /home/jacques/github/breakout_1572/breakout_1572.X/breakout1572.asm
                     row5   0x0000c7       data     static /home/jacques/github/breakout_1572/breakout_1572.X/breakout1572.asm
                    fill5   0x0000cd       data     static /home/jacques/github/breakout_1572/breakout_1572.X/breakout1572.asm
                     row6   0x0000cf       data     static /home/jacques/github/breakout_1572/breakout_1572.X/breakout1572.asm
                    fill6   0x0000d5       data     static /home/jacques/github/breakout_1572/breakout_1572.X/breakout1572.asm
                 fg_color   0x0000d7       data     static /home/jacques/github/breakout_1572/breakout_1572.X/breakout1572.asm
              paddle_byte   0x0000d8       data     static /home/jacques/github/breakout_1572/breakout_1572.X/breakout1572.asm
              paddle_mask   0x0000d9       data     static /home/jacques/github/breakout_1572/breakout_1572.X/breakout1572.asm
                ball_byte   0x0000db       data     static /home/jacques/github/breakout_1572/breakout_1572.X/breakout1572.asm
                ball_mask   0x0000dc       data     static /home/jacques/github/breakout_1572/breakout_1572.X/breakout1572.asm
              sound_timer   0x0000de       data     static /home/jacques/github/breakout_1572/breakout_1572.X/breakout1572.asm
                    balls   0x0000df       data     static /home/jacques/github/breakout_1572/breakout_1572.X/breakout1572.asm


