MPASM 5.83  /HOME/JACQUES/GITHUB/BREAKOUT_15   3-6-2019  10:56:55         PAGE  1


LOC  OBJECT CODE     LINE SOURCE TEXT
  VALUE

                      00001 
                      00002 
                      00003     include p12f1572.inc
                      00001         LIST
                      00002 
                      00003 ;==========================================================================
                      00004 ; Build date : Jan 21 2019
                      00005 ;  MPASM PIC12F1572 processor include
                      00006 ; 
                      00007 ;  (c) Copyright 1999-2019 Microchip Technology, All rights reserved
                      00008 ;==========================================================================
                      00009 
                      01601         LIST
                      00004     
8007   3FA7           00005     __config _CONFIG1, _FOSC_ECH & _WDTE_OFF & _MCLRE_OFF
8008   3EFF           00006     __config _CONFIG2, _PLLEN_OFF
                      00007     
                      00008     radix dec
                      00009 
                      00010 ; constants
  00000800            00011 PROG_SIZE equ 2048  ; program words
  00000080            00012 EEPROM_SIZE equ 128 ; high endurance flash words
                      00013  
  01B4F360            00014 Fosc equ 28636000 ; external oscillator frequency
  006D3CD8            00015 Fcy  equ (Fosc/4) ; cpu frequency, machine cycle  T=1/Fcy
                      00016 
                      00017  
                      00018 ; NTSC signal 
  00003D76            00019 Fhorz equ 15734 ; horizontal frequency
  0000071B            00020 HPERIOD equ ((Fosc/Fhorz)-1)  ; horizontal period pwm count(63,55µS)
  00000086            00021 HSYNC  equ 134  ;  (4,7µS) ; horz. sync. pwm pulse count
  00000041            00022 HEQUAL equ 65 ; 2,3µS equalization pwm pulse count
  00000308            00023 VSYNC_PULSE equ 776 ; 27,1µS vertical sync. pwm pulse count
  0000038D            00024 HALF_LINE equ ((Fosc/Fhorz/2)-1) 
                      00025 ; boolean flags 
  00000000            00026 F_HI_LINE equ 0 ; lcount > 255
  00000001            00027 F_EVEN equ 1    ; even field
  00000002            00028 F_START equ 2   ; game started 
  00000003            00029 F_OVER equ 3    ; game over
  00000004            00030 F_SOUND equ 4   ; sound enabled 
  00000005            00031 F_SYNC equ 5    ; vertical synchronization phase
                      00032  
                      00033 ;pins assignment
  00000000            00034 AUDIO EQU RA0
  00000000            00035 PADDLE equ RA0
  00000001            00036 CHROMA equ RA1
  00000002            00037 SYNC_OUT equ RA2
  00000003            00038 START_BTN equ RA3 
  00000004            00039 VIDEO_OUT equ RA4
  00000005            00040 CLKIN equ RA5
                      00041  
                      00042 
                      00043 ;;;;;;;;;;;;;;;;;;;;;;
MPASM 5.83  /HOME/JACQUES/GITHUB/BREAKOUT_15   3-6-2019  10:56:55         PAGE  2


LOC  OBJECT CODE     LINE SOURCE TEXT
  VALUE

                      00044 ;; assembler macros ;;
                      00045 ;;;;;;;;;;;;;;;;;;;;;;
                      00046 
                      00047 ; leave task 
                      00048 leave macro
                      00049     goto isr_exit
                      00050     endm
                      00051     
                      00052 ; move to next task on slice limit
                      00053 ; parameters:
                      00054 ;   s  nomber of slices used by the task    
                      00055 next_task macro s    
                      00056     incf slice
                      00057     movlw s
                      00058     subwf slice,W
                      00059     skpz
                      00060     leave
                      00061     clrf slice
                      00062     incf task
                      00063     movlw s
                      00064     addwf lcount
                      00065     leave
                      00066     endm
                      00067     
                      00068     
                      00069 ; case switch
                      00070 ; parameters:
                      00071 ;   var is control variable
                      00072 ;   n  is constant to compare to var
                      00073 ;   adr  is goto address if var==n 
                      00074 case macro var, n, adr
                      00075     movlw n
                      00076     subwf var,W
                      00077     skpnz
                      00078     goto adr
                      00079     endm
                      00080 
                      00081 ; swap variable with WREG    
                      00082 swap_var macro var
                      00083     xorwf var
                      00084     xorwf var,W
                      00085     xorwf var
                      00086     endm
                      00087     
                      00088     
                      00089 ; delay in machine cycle T
                      00090 ; parameters:
                      00091 ;   T   number of machine cycles    
                      00092 tdelay macro T
                      00093     variable q=(T)/3
                      00094     variable r=(T)%3
                      00095     if (q)
                      00096     movlw q
MPASM 5.83  /HOME/JACQUES/GITHUB/BREAKOUT_15   3-6-2019  10:56:55         PAGE  3


LOC  OBJECT CODE     LINE SOURCE TEXT
  VALUE

                      00097     decfsz WREG
                      00098     goto $-1
                      00099     endif
                      00100     if (r==2)
                      00101     goto $+1
                      00102     endif 
                      00103     if (r==1)
                      00104     nop
                      00105     endif
                      00106     endm
                      00107 
                      00108 ; enable weak pull on VIDEO_OUT
                      00109 ; to create a porch
                      00110 porch_on macro
                      00111     banksel WPUA
                      00112     bsf WPUA,VIDEO_OUT
                      00113     endm
                      00114     
                      00115 ; disable weak pull on VIDEO_OUT
                      00116 ; to remove porch
                      00117 porch_off macro
                      00118     banksel WPUA
                      00119     bcf WPUA,VIDEO_OUT
                      00120     endm
                      00121     
                      00122 ; enable chroma output
                      00123 chroma_on macro
                      00124     banksel TRISA
                      00125     bcf TRISA, CHROMA
                      00126     endm
                      00127     
                      00128 ;disable chroma output    
                      00129 chroma_off macro
                      00130     banksel TRISA
                      00131     bsf TRISA,CHROMA
                      00132     endm
                      00133     
                      00134 ; output chroma reference    
                      00135 chroma_ref macro
                      00136     banksel PWM1CON
                      00137     bcf PWM1CON,POL
                      00138     endm
                      00139     
                      00140 ; set chroma phase to 180 degree
                      00141 chroma_invert macro
                      00142     banksel PWM1CON
                      00143     bsf PWM1CON,POL
                      00144     endm
                      00145 
                      00146 ;;;;;;;;;;;;;;;;;;;;;;
                      00147 ;   colors macros
                      00148 ; each one take 5 T 
                      00149 ;;;;;;;;;;;;;;;;;;;;;;
MPASM 5.83  /HOME/JACQUES/GITHUB/BREAKOUT_15   3-6-2019  10:56:55         PAGE  4


LOC  OBJECT CODE     LINE SOURCE TEXT
  VALUE

                      00150     
                      00151 ;set video output to black    
                      00152 black macro
                      00153     banksel TRISA
                      00154     bsf TRISA,CHROMA
                      00155     bsf TRISA,VIDEO_OUT
                      00156 ;    goto $+1
                      00157     endm
                      00158     
                      00159 ; set video output to white    
                      00160 white macro    
                      00161     banksel TRISA
                      00162     bsf TRISA,CHROMA
                      00163     bcf TRISA,VIDEO_OUT
                      00164 ;    goto $+1
                      00165     endm
                      00166 
                      00167 ; set video output to yellow    
                      00168 yellow macro
                      00169 ;    chroma_ref
                      00170     banksel TRISA
                      00171     bcf TRISA,VIDEO_OUT
                      00172     bcf TRISA,CHROMA
                      00173     endm
                      00174 
                      00175 ; set video output to cyan   
                      00176 cyan macro
                      00177 ;    chroma_invert
                      00178     banksel TRISA
                      00179     bcf TRISA,VIDEO_OUT
                      00180     bcf TRISA,CHROMA
                      00181     endm
                      00182     
                      00183 ; set video output to green
                      00184 green macro
                      00185 ;    chroma_ref
                      00186     banksel TRISA
                      00187     bsf TRISA, VIDEO_OUT
                      00188     bcf TRISA,CHROMA
                      00189     endm
                      00190     
                      00191 ; set video output to dark blue    
                      00192 dark_blue macro
                      00193 ;    chroma_invert
                      00194     banksel TRISA
                      00195     bsf TRISA, VIDEO_OUT
                      00196     bcf TRISA,CHROMA
                      00197     endm
                      00198 
                      00199     
                      00200 ; draw a brick
                      00201 ; use 6T+BRICK_WIDTH
                      00202 ; if carry is 1 draw in color else draw black    
MPASM 5.83  /HOME/JACQUES/GITHUB/BREAKOUT_15   3-6-2019  10:56:55         PAGE  5


LOC  OBJECT CODE     LINE SOURCE TEXT
  VALUE

  0000001C            00203 BRICK_WIDTH equ 28   
                      00204 draw_brick macro color
                      00205     local no_brick
                      00206     local brick_delay
                      00207     skpc
                      00208     bra no_brick
                      00209     color
                      00210     bra brick_delay
                      00211 no_brick
                      00212     nop
                      00213     black
                      00214     bra brick_delay 
                      00215 brick_delay    
                      00216     tdelay BRICK_WIDTH
                      00217     endm
                      00218 
                      00219 ; draw 8 bricks wall
                      00220 ;  parameter in temp
                      00221 draw_wall macro color
                      00222     local next_brick
                      00223     movlw 8
                      00224     pushw
                      00225 next_brick    
                      00226     lslf temp
                      00227     draw_brick color
                      00228     decfsz T
                      00229     bra next_brick
                      00230     dropn 1
                      00231     endm
                      00232     
                      00233     
                      00234 ; draw left and right borders
                      00235 ; parameters:
                      00236 ;   width delay determine width
                      00237 ;   width 5T+nT    
                      00238 draw_border macro width
                      00239     banksel TRISA
                      00240     bsf TRISA,CHROMA
                      00241     bcf TRISA,VIDEO_OUT
                      00242     tdelay width
                      00243     bsf TRISA,VIDEO_OUT
                      00244     endm
                      00245     
                      00246 ;;;;;;;;;;;;;;;;;;;;;;;;;;;;;;
                      00247 ;  stack manipulation macros
                      00248 ;;;;;;;;;;;;;;;;;;;;;;;;;;;;;;    
  00000010            00249 STACK_SIZE equ 16 ; size of argument stack
                      00250 #define T INDF0 ; top of argument stack
                      00251 #define SP FSR0 ; use FSR0 as stack pointer 
                      00252 ; push WREG on T
                      00253 pushw  macro
                      00254     movwi --SP
                      00255     endm
MPASM 5.83  /HOME/JACQUES/GITHUB/BREAKOUT_15   3-6-2019  10:56:55         PAGE  6


LOC  OBJECT CODE     LINE SOURCE TEXT
  VALUE

                      00256   
                      00257 ; pop WREG from T
                      00258 popw macro
                      00259     moviw SP++
                      00260     endm
                      00261     
                      00262 ; swap WREG with 
                      00263 swapw  macro
                      00264     xorwf T
                      00265     xorwf T,W
                      00266     xorwf T
                      00267     endm
                      00268 
                      00269 ; drop n elements from stack
                      00270 dropn macro n
                      00271     addfsr T,n
                      00272     endm
                      00273 
                      00274 ; copy nth element of stack to WREG
                      00275 ;  n {0..31}    
                      00276 pickn macro n
                      00277     moviw n[SP]
                      00278     endm
                      00279    
                      00280 ; copy WREG to nth element of stack
                      00281 ; n {0..31}
                      00282 pokew macro n
                      00283     movwi n[SP]
                      00284     endm
                      00285     
                      00286     
                      00287 ;;;;;;;;;;;;;;;;;;;;;;;;;;
                      00288 ;;    variables
                      00289 ;;;;;;;;;;;;;;;;;;;;;;;;;;
                      00290     
                      00291     udata 0x20
0020                  00292 stack res 16 ; arguments stack
0030                  00293 brick_wall res 0  ; bricks data 1 byte per brick row.
0030                  00294 row1 res 1; brick wall row1
0031                  00295 row2 res 1
0032                  00296 row3 res 1
0033                  00297 row4 res 1
0034                  00298 row5 res 1
                      00299 
                      00300 v_array   udata 0xA0
00A0                  00301 d1 res 1 ; score msd digit pixels
00A1                  00302 d2 res 1 ; score 2nd digit pixels
00A2                  00303 d3 res 1 ; score lsd digit pixels
00A3                  00304 balls res 1 ; number of recking balls available 
00A4                  00305 sound_timer res 1 ; duration in multiple of 16.7msec. 
                      00306   
                      00307     udata_shr
0000                  00308 flags  res 1 ; boolean variables
MPASM 5.83  /HOME/JACQUES/GITHUB/BREAKOUT_15   3-6-2019  10:56:55         PAGE  7


LOC  OBJECT CODE     LINE SOURCE TEXT
  VALUE

0001                  00309 lcount res 1 ; video field line counter
0002                  00310 slice res 1 ; task slice counter, a task may use more than one slice.
0003                  00311 task res 1 ; where in video phase 
0004                  00312 temp res 2 ; temporary storage
0006                  00313 paddle_pos res 1 
0007                  00314 ball_x res 1
0008                  00315 ball_y res 1
0009                  00316 ball_dx res 1
000A                  00317 ball_dy res 1
000B                  00318 ball_speed res 1
000C                  00319 score res 2 ; score stored in Binary Coded Decimal
000E                  00320 ball_timer res 1 
                      00321  
                      00322 ;; code 
                      00323 RES_VECT  CODE    0x0000            ; processor reset vector
0000   2???           00324     GOTO    START                   ; go to beginning of program
0001   0001           00325     reset
0002   0001           00326     reset
0003   0001           00327     reset
                      00328 
                      00329 ;;;;;;;;;;;;;;;;;;;;;;;;;;;;;;;;;;;;;;;;;;;;;;;;;;;;;;;;;;;;;    
                      00330 ; interrupt service routine triggered by PWM3 period rollover
                      00331 ISR CODE 0x0004
0004                  00332 isr
0004   1A80           00333     btfsc flags, F_SYNC
0005   2???           00334     goto task_switch
                      00335  ; chroma sync
                      00336     tdelay 30
  000A                    M     variable q=(30)/3
  0000                    M     variable r=(30)%3
                          M     if (q)
0006   300A               M     movlw q
0007   0B89               M     decfsz WREG
0008   2???               M     goto $-1
                          M     endif
                          M     if (r==2)
                          M     goto $+1
                          M     endif 
                          M     if (r==1)
                          M     nop
                          M     endif
0009   0021           00337     banksel TRISA
000A   108C           00338     bcf TRISA,CHROMA
                      00339     tdelay 16
  0005                    M     variable q=(16)/3
  0001                    M     variable r=(16)%3
                          M     if (q)
000B   3005               M     movlw q
000C   0B89               M     decfsz WREG
000D   2???               M     goto $-1
                          M     endif
                          M     if (r==2)
                          M     goto $+1
MPASM 5.83  /HOME/JACQUES/GITHUB/BREAKOUT_15   3-6-2019  10:56:55         PAGE  8


LOC  OBJECT CODE     LINE SOURCE TEXT
  VALUE

                          M     endif 
                          M     if (r==1)
000E   0000               M     nop
                          M     endif
000F   148C           00340     bsf TRISA,CHROMA
                      00341     porch_on
0010   0024               M     banksel WPUA
0011   160C               M     bsf WPUA,VIDEO_OUT
0012                  00342 task_switch    
0012   018A           00343     clrf PCLATH
0013   08??           00344     movfw task
0014   0782           00345     addwf PCL
0015   2???           00346     goto pre_vsync ;task 0, vertical pre-equalization pulses, 6 slices
0016   2???           00347     goto vsync ;task 1, vertical sync pulses, 6 slices
0017   2???           00348     goto post_vsync ;task 2, vertical post-equalization pulses, 6 slices
0018   2???           00349     goto vsync_end ;task 3, return to normal video line, 1 slice
0019   2???           00350     goto user_input ;task 4,  read button and paddle, 1 slice
001A   2???           00351     goto sound ;task 5, check sound timer expiration, 1 slice
001B   2???           00352     goto move_ball ;task 6, move recking ball and check collision, etc, 1 slice
001C   2???           00353     goto video_first ; task 7, wait up to lcount==19
001D   2???           00354     goto draw_score ;task 8,  draw score en ball count, 6 slices
001E   2???           00355     goto draw_top_wall ;task 9,  draw top wall, 4 slices
001F   2???           00356     goto draw_void ;task 10 draw void space between top wall and top brick row, 8 slices
0020   2???           00357     goto draw_row1 ;task 11, 4 slices
0021   2???           00358     goto draw_row2 ;task 12, 4 slices
0022   2???           00359     goto draw_row3 ;task 13,  4 slices
0023   2???           00360     goto draw_row4 ;task 14,  4 slices
0024   2???           00361     goto draw_row5 ;task 15, 4 slices
0025   2???           00362     goto draw_empty;task 16, 188 slices
0026   2???           00363     goto draw_paddle ;task 17, 4 slices
0027   2???           00364     goto wait_field_end ;task 18, player used all the available recking balls, 12/13 slices
0028   0001           00365     reset ; error trap, task out of range
0029                  00366 isr_exit  
                      00367     porch_off
0029   0024               M     banksel WPUA
002A   120C               M     bcf WPUA,VIDEO_OUT
002B   003B           00368     banksel PWM3INTF
002C   103D           00369     bcf PWM3INTF,PRIF
002D   0009           00370     retfie
                      00371 
                      00372 ;;;;;;;;;;;;;;;;;;;;;;;;;;;;;;;;;;;;;;;;;;;;
                      00373 ;;  all tasks routine are here            ;;
                      00374 ;;  each must be terminate by leave macro ;;    
                      00375 ;;;;;;;;;;;;;;;;;;;;;;;;;;;;;;;;;;;;;;;;;;;;
                      00376     
                      00377 ; task 0, vertical synchronization pre equalization
002E                  00378 pre_vsync
002E   08??           00379     movfw slice
002F   1903           00380     skpnz
0030   2???           00381     goto set_presync
                      00382     next_task 6
0031   0A??               M     incf slice
0032   3006               M     movlw 6
MPASM 5.83  /HOME/JACQUES/GITHUB/BREAKOUT_15   3-6-2019  10:56:55         PAGE  9


LOC  OBJECT CODE     LINE SOURCE TEXT
  VALUE

0033   02??               M     subwf slice,W
0034   1D03               M     skpz
                          M     leave
0035   2???               M     goto isr_exit
0036   01??               M     clrf slice
0037   0A??               M     incf task
0038   3006               M     movlw 6
0039   07??               M     addwf lcount
                          M     leave
003A   2???               M     goto isr_exit
003B                  00383 set_presync    
003B   003B           00384     banksel PWM3DC
003C   3041           00385     movlw HEQUAL
003D   00B3           00386     movwf PWM3DCL
003E   01B4           00387     clrf PWM3DCH
003F   3003           00388     movlw high HALF_LINE
0040   00B6           00389     movwf PWM3PRH
0041   308D           00390     movlw low HALF_LINE
0042   00B5           00391     movwf PWM3PRL
0043   17BF           00392     bsf PWM3LDCON,7
0044   0A??           00393     incf slice
                      00394     leave
0045   2???               M     goto isr_exit
                      00395     
                      00396 ; task 1, vertical synchronization pulses
0046                  00397 vsync 
0046   08??           00398     movfw slice
0047   1903           00399     skpnz
0048   2???           00400     goto set_vsync
                      00401     next_task 6
0049   0A??               M     incf slice
004A   3006               M     movlw 6
004B   02??               M     subwf slice,W
004C   1D03               M     skpz
                          M     leave
004D   2???               M     goto isr_exit
004E   01??               M     clrf slice
004F   0A??               M     incf task
0050   3006               M     movlw 6
0051   07??               M     addwf lcount
                          M     leave
0052   2???               M     goto isr_exit
0053                  00402 set_vsync
0053   003B           00403     banksel PWM3DC
0054   3008           00404     movlw low VSYNC_PULSE
0055   00B3           00405     movwf PWM3DCL
0056   3003           00406     movlw high VSYNC_PULSE
0057   00B4           00407     movwf PWM3DCH
0058   17BF           00408     bsf PWM3LDCON,7
0059   0A??           00409     incf slice
                      00410     leave
005A   2???               M     goto isr_exit
                      00411     
MPASM 5.83  /HOME/JACQUES/GITHUB/BREAKOUT_15   3-6-2019  10:56:55         PAGE 10


LOC  OBJECT CODE     LINE SOURCE TEXT
  VALUE

                      00412 ; task 2, vertical synchronisation post equalization pulses
005B                  00413 post_vsync
005B   08??           00414     movfw slice
005C   1903           00415     skpnz
005D   2???           00416     goto set_presync
005E   3006           00417     movlw 6
005F   02??           00418     subwf slice,W
0060   1903           00419     skpnz
0061   2???           00420     goto post_last
0062   0A??           00421     incf slice
                      00422     leave
0063   2???               M     goto isr_exit
0064                  00423 post_last    
0064   0A??           00424     incf task
0065   01??           00425     clrf slice
0066   1C80           00426     btfss flags, F_EVEN
                      00427     leave
0067   2???               M     goto isr_exit
                      00428     
                      00429 ; task 3, vertical synchronization completed, return to normal line
0068                  00430 vsync_end
0068   1280           00431     bcf flags, F_SYNC
0069   003B           00432     banksel PWM3DC
006A   3086           00433     movlw HSYNC
006B   00B3           00434     movwf PWM3DCL
006C   01B4           00435     clrf PWM3DCH
006D   3007           00436     movlw high HPERIOD
006E   00B6           00437     movwf PWM3PRH
006F   301B           00438     movlw low HPERIOD
0070   00B5           00439     movwf PWM3PRL
0071   17BF           00440     bsf PWM3LDCON,7
0072   0A??           00441     incf task
0073   3009           00442     movlw 9
0074   00??           00443     movwf lcount
                      00444     leave
0075   2???               M     goto isr_exit
                      00445 
                      00446 ;task 4, read button and paddle position
  00000020            00447 PADDLE_WIDTH equ 32
  0000005D            00448 PADDLE_LIMIT equ 93
  00000020            00449 BALL_LEFT_BOUND equ 32
  00000136            00450 BALL_RIGHT_BOUND equ 310
  00000036            00451 BALL_TOP_BOUND equ 54
  000000F0            00452 BALL_BOTTOM_BOUND equ 240 ;(BALL_TOP_BOUND+7*BRICK_HEIGHT+118)
                      00453  
                      00454  
0076                  00455 user_input
0076   0A??           00456     incf task
0077   0A??           00457     incf lcount
0078   1900           00458     btfsc flags, F_START
0079   2???           00459     goto read_paddle
                      00460 ; read start button
007A   0022           00461     banksel LATA
MPASM 5.83  /HOME/JACQUES/GITHUB/BREAKOUT_15   3-6-2019  10:56:55         PAGE 11


LOC  OBJECT CODE     LINE SOURCE TEXT
  VALUE

007B   1D8C           00462     btfss LATA,START_BTN
007C   1500           00463     bsf flags, F_START
                      00464     leave
007D   2???               M     goto isr_exit
007E                  00465 read_paddle
007E   0021           00466     banksel TRISA
007F   140C           00467     bsf TRISA, PADDLE
0080   0021           00468     banksel ADCON0
0081   3003           00469     movlw 3
0082   009D           00470     movwf ADCON0
0083   189D           00471     btfsc ADCON0,NOT_DONE
0084   2???           00472     goto $-1
0085   101D           00473     bcf ADCON0,ADON
0086   081C           00474     movfw ADRESH
0087   00??           00475     movwf paddle_pos
0088   305D           00476     movlw PADDLE_LIMIT
0089   02??           00477     subwf paddle_pos,W
008A   1C03           00478     skpc
008B   3???           00479     bra $+3
008C   305D           00480     movlw PADDLE_LIMIT
008D   00??           00481     movwf paddle_pos
008E   0021           00482     banksel TRISA
008F   100C           00483     bcf TRISA, AUDIO
                      00484     leave
0090   2???               M     goto isr_exit
                      00485 
                      00486 ; task 5,  sound timer
0091                  00487 sound
0091   0A??           00488     incf task
0092   0A??           00489     incf lcount
0093   1E00           00490     btfss flags, F_SOUND
                      00491     leave
0094   2???               M     goto isr_exit
0095   002?           00492     banksel sound_timer
0096   0B??           00493     decfsz sound_timer
                      00494     leave
0097   2???               M     goto isr_exit
0098   1200           00495     bcf flags, F_SOUND
0099   003B           00496     banksel PWM2CON
009A   132B           00497     bcf PWM2CON,OE
009B   13AB           00498     bcf PWM2CON,EN
                      00499     leave
009C   2???               M     goto isr_exit
                      00500 
                      00501    
                      00502 ; task 6, move recking ball and check collision    
009D                  00503 move_ball
                      00504     
009D   0A??           00505     incf task
009E   0A??           00506     incf lcount
                      00507     leave
009F   2???               M     goto isr_exit
                      00508 
MPASM 5.83  /HOME/JACQUES/GITHUB/BREAKOUT_15   3-6-2019  10:56:55         PAGE 12


LOC  OBJECT CODE     LINE SOURCE TEXT
  VALUE

                      00509     
                      00510 ; task 7, wait for lcount==26, First visible video line is 27
00A0                  00511 video_first
00A0   0A??           00512     incf lcount
00A1   301A           00513     movlw 26
00A2   02??           00514     subwf lcount,W
00A3   1D03           00515     skpz
                      00516     leave
00A4   2???               M     goto isr_exit
00A5   01??           00517     clrf slice
00A6   0A??           00518     incf task
                      00519     leave
00A7   2???               M     goto isr_exit
                      00520    
                      00521 ;;;;;;;;;;;;;;;;;;;;;;;;;;;;;;;;;;;;;;;;;;;;;;;;;;;;;;;;;;;;;
                      00522 ; The following tasks are responsible to render video display.
                      00523 ; Each video line must be completed by setting color to black.
                      00524 ;;;;;;;;;;;;;;;;;;;;;;;;;;;;;;;;;;;;;;;;;;;;;;;;;;;;;;;;;;;;;
                      00525     
                      00526 ; constants used in video display
  00000018            00527 LEFT_MARGIN equ 24
  00000130            00528 COURT_WIDTH equ 304
  00000008            00529 BRICK_HEIGHT equ 8
  00000004            00530 BORDER_WIDTH equ 4
  0000001A            00531 FIRST_VIDEO_LINE equ 26
                      00532  
                      00533 ; task 8, draw score en ball count
00A8                  00534 draw_score
00A8   0021           00535     banksel TRISA
00A9   08??           00536     movfw slice
00AA   3689           00537     lsrf WREG
00AB   3689           00538     lsrf WREG
                      00539     pushw
00AC   0019               M     movwi --SP
00AD   300F           00540     movlw 0xf
00AE   05??           00541     andwf score+1,W
00AF   2???           00542     call digit_offset
00B0   0700           00543     addwf T,W
00B1   2???           00544     call digits
00B2   00??           00545     movwf d3
00B3   0E??           00546     swapf score+1,W
00B4   390F           00547     andlw 0xf
00B5   2???           00548     call digit_offset
00B6   0700           00549     addwf T,W
00B7   2???           00550     call digits
00B8   00??           00551     movwf d2
00B9   300F           00552     movlw 0xf
00BA   05??           00553     andwf score,W
00BB   2???           00554     call digit_offset
00BC   0700           00555     addwf T,W
00BD   2???           00556     call digits
00BE   2???           00557     call digit_row
00BF   08??           00558     movfw d2
MPASM 5.83  /HOME/JACQUES/GITHUB/BREAKOUT_15   3-6-2019  10:56:55         PAGE 13


LOC  OBJECT CODE     LINE SOURCE TEXT
  VALUE

00C0   2???           00559     call digit_row
00C1   08??           00560     movfw d3
00C2   2???           00561     call digit_row
                      00562     tdelay 60
  0014                    M     variable q=(60)/3
  0000                    M     variable r=(60)%3
                          M     if (q)
00C3   3014               M     movlw q
00C4   0B89               M     decfsz WREG
00C5   2???               M     goto $-1
                          M     endif
                          M     if (r==2)
                          M     goto $+1
                          M     endif 
                          M     if (r==1)
                          M     nop
                          M     endif
00C6   120C           00563     bcf TRISA,VIDEO_OUT
                      00564     tdelay 5
  0001                    M     variable q=(5)/3
  0002                    M     variable r=(5)%3
                          M     if (q)
00C7   3001               M     movlw q
00C8   0B89               M     decfsz WREG
00C9   2???               M     goto $-1
                          M     endif
                          M     if (r==2)
00CA   2???               M     goto $+1
                          M     endif 
                          M     if (r==1)
                          M     nop
                          M     endif
00CB   160C           00565     bsf TRISA,VIDEO_OUT
                      00566     tdelay 30
  000A                    M     variable q=(30)/3
  0000                    M     variable r=(30)%3
                          M     if (q)
00CC   300A               M     movlw q
00CD   0B89               M     decfsz WREG
00CE   2???               M     goto $-1
                          M     endif
                          M     if (r==2)
                          M     goto $+1
                          M     endif 
                          M     if (r==1)
                          M     nop
                          M     endif
00CF   08??           00567     movfw balls
00D0   2???           00568     call digit_offset
00D1   0700           00569     addwf T,W
00D2   2???           00570     call digits
00D3   2???           00571     call digit_row
00D4                  00572 score_exit
MPASM 5.83  /HOME/JACQUES/GITHUB/BREAKOUT_15   3-6-2019  10:56:55         PAGE 14


LOC  OBJECT CODE     LINE SOURCE TEXT
  VALUE

                      00573     next_task 5*4
00D4   0A??               M     incf slice
00D5   3014               M     movlw 5*4
00D6   02??               M     subwf slice,W
00D7   1D03               M     skpz
                          M     leave
00D8   2???               M     goto isr_exit
00D9   01??               M     clrf slice
00DA   0A??               M     incf task
00DB   3014               M     movlw 5*4
00DC   07??               M     addwf lcount
                          M     leave
00DD   2???               M     goto isr_exit
                      00574 
                      00575 ; display digit row    
00DE                  00576 digit_row
00DE   0D89           00577     rlf WREG
00DF   1803           00578     skpnc
00E0   120C           00579     bcf TRISA,VIDEO_OUT
00E1   1C03           00580     skpc
00E2   160C           00581     bsf TRISA,VIDEO_OUT
00E3   0D89           00582     rlf WREG
00E4   1803           00583     skpnc
00E5   120C           00584     bcf TRISA,VIDEO_OUT
00E6   1C03           00585     skpc
00E7   160C           00586     bsf TRISA,VIDEO_OUT
00E8   0D89           00587     rlf WREG
00E9   1803           00588     skpnc
00EA   120C           00589     bcf TRISA,VIDEO_OUT
00EB   1C03           00590     skpc
00EC   160C           00591     bsf TRISA,VIDEO_OUT
00ED   3???           00592     bra $+1
00EE   3???           00593     bra $+1
00EF   160C           00594     bsf TRISA,VIDEO_OUT
00F0   0008           00595     return
                      00596     
                      00597 ; task 9,  draw top wall, 8 screen lines    
00F1                  00598 draw_top_wall
00F1   1C80           00599     btfss flags, F_EVEN
00F2   3???           00600     bra top_wall_exit
                      00601     tdelay LEFT_MARGIN-2
  0007                    M     variable q=(LEFT_MARGIN-2)/3
  0001                    M     variable r=(LEFT_MARGIN-2)%3
                          M     if (q)
00F3   3007               M     movlw q
00F4   0B89               M     decfsz WREG
00F5   2???               M     goto $-1
                          M     endif
                          M     if (r==2)
                          M     goto $+1
                          M     endif 
                          M     if (r==1)
00F6   0000               M     nop
MPASM 5.83  /HOME/JACQUES/GITHUB/BREAKOUT_15   3-6-2019  10:56:55         PAGE 15


LOC  OBJECT CODE     LINE SOURCE TEXT
  VALUE

                          M     endif
                      00602     white
00F7   0021               M     banksel TRISA
00F8   148C               M     bsf TRISA,CHROMA
00F9   120C               M     bcf TRISA,VIDEO_OUT
                          M ;    goto $+1
                      00603     tdelay COURT_WIDTH+3*BORDER_WIDTH+1
  0069                    M     variable q=(COURT_WIDTH+3*BORDER_WIDTH+1)/3
  0002                    M     variable r=(COURT_WIDTH+3*BORDER_WIDTH+1)%3
                          M     if (q)
00FA   3069               M     movlw q
00FB   0B89               M     decfsz WREG
00FC   2???               M     goto $-1
                          M     endif
                          M     if (r==2)
00FD   2???               M     goto $+1
                          M     endif 
                          M     if (r==1)
                          M     nop
                          M     endif
                      00604     black
00FE   0021               M     banksel TRISA
00FF   148C               M     bsf TRISA,CHROMA
0100   160C               M     bsf TRISA,VIDEO_OUT
                          M ;    goto $+1
0101                  00605 top_wall_exit
                      00606     next_task BRICK_HEIGHT
0101   0A??               M     incf slice
0102   3008               M     movlw BRICK_HEIGHT
0103   02??               M     subwf slice,W
0104   1D03               M     skpz
                          M     leave
0105   2???               M     goto isr_exit
0106   01??               M     clrf slice
0107   0A??               M     incf task
0108   3008               M     movlw BRICK_HEIGHT
0109   07??               M     addwf lcount
                          M     leave
010A   2???               M     goto isr_exit
                      00607 
                      00608 ; task 10,  only on even field draw vertical side bands.    
010B                  00609 draw_void
010B   1C80           00610     btfss flags, F_EVEN
010C   3???           00611     bra no_wall_draw
010D   08??           00612     movfw ball_y
010E   02??           00613     subwf lcount,W
010F   1C03           00614     skpc
0110   3???           00615     bra no_ball
0111   3008           00616     movlw 8
0112   07??           00617     addwf ball_y,W
0113   02??           00618     subwf lcount,W
0114   1C03           00619     skpc
0115   3???           00620     bra yes_ball
MPASM 5.83  /HOME/JACQUES/GITHUB/BREAKOUT_15   3-6-2019  10:56:55         PAGE 16


LOC  OBJECT CODE     LINE SOURCE TEXT
  VALUE

0116                  00621 no_ball    
                      00622     tdelay LEFT_MARGIN-7
  0005                    M     variable q=(LEFT_MARGIN-7)/3
  0002                    M     variable r=(LEFT_MARGIN-7)%3
                          M     if (q)
0116   3005               M     movlw q
0117   0B89               M     decfsz WREG
0118   2???               M     goto $-1
                          M     endif
                          M     if (r==2)
0119   2???               M     goto $+1
                          M     endif 
                          M     if (r==1)
                          M     nop
                          M     endif
                      00623     draw_border BORDER_WIDTH
011A   0021               M     banksel TRISA
011B   148C               M     bsf TRISA,CHROMA
011C   120C               M     bcf TRISA,VIDEO_OUT
                          M     tdelay BORDER_WIDTH
  0001                    M     variable q=(BORDER_WIDTH)/3
  0001                    M     variable r=(BORDER_WIDTH)%3
                          M     if (q)
011D   3001               M     movlw q
011E   0B89               M     decfsz WREG
011F   2???               M     goto $-1
                          M     endif
                          M     if (r==2)
                          M     goto $+1
                          M     endif 
                          M     if (r==1)
0120   0000               M     nop
                          M     endif
0121   160C               M     bsf TRISA,VIDEO_OUT
                      00624     black
0122   0021               M     banksel TRISA
0123   148C               M     bsf TRISA,CHROMA
0124   160C               M     bsf TRISA,VIDEO_OUT
                          M ;    goto $+1
                      00625     tdelay COURT_WIDTH
  0065                    M     variable q=(COURT_WIDTH)/3
  0001                    M     variable r=(COURT_WIDTH)%3
                          M     if (q)
0125   3065               M     movlw q
0126   0B89               M     decfsz WREG
0127   2???               M     goto $-1
                          M     endif
                          M     if (r==2)
                          M     goto $+1
                          M     endif 
                          M     if (r==1)
0128   0000               M     nop
                          M     endif
MPASM 5.83  /HOME/JACQUES/GITHUB/BREAKOUT_15   3-6-2019  10:56:55         PAGE 17


LOC  OBJECT CODE     LINE SOURCE TEXT
  VALUE

                      00626     draw_border BORDER_WIDTH
0129   0021               M     banksel TRISA
012A   148C               M     bsf TRISA,CHROMA
012B   120C               M     bcf TRISA,VIDEO_OUT
                          M     tdelay BORDER_WIDTH
  0001                    M     variable q=(BORDER_WIDTH)/3
  0001                    M     variable r=(BORDER_WIDTH)%3
                          M     if (q)
012C   3001               M     movlw q
012D   0B89               M     decfsz WREG
012E   2???               M     goto $-1
                          M     endif
                          M     if (r==2)
                          M     goto $+1
                          M     endif 
                          M     if (r==1)
012F   0000               M     nop
                          M     endif
0130   160C               M     bsf TRISA,VIDEO_OUT
0131   3???           00627     bra draw_void_exit
0132                  00628 yes_ball
                      00629     tdelay LEFT_MARGIN-16
  0002                    M     variable q=(LEFT_MARGIN-16)/3
  0002                    M     variable r=(LEFT_MARGIN-16)%3
                          M     if (q)
0132   3002               M     movlw q
0133   0B89               M     decfsz WREG
0134   2???               M     goto $-1
                          M     endif
                          M     if (r==2)
0135   2???               M     goto $+1
                          M     endif 
                          M     if (r==1)
                          M     nop
                          M     endif
                      00630     draw_border BORDER_WIDTH
0136   0021               M     banksel TRISA
0137   148C               M     bsf TRISA,CHROMA
0138   120C               M     bcf TRISA,VIDEO_OUT
                          M     tdelay BORDER_WIDTH
  0001                    M     variable q=(BORDER_WIDTH)/3
  0001                    M     variable r=(BORDER_WIDTH)%3
                          M     if (q)
0139   3001               M     movlw q
013A   0B89               M     decfsz WREG
013B   2???               M     goto $-1
                          M     endif
                          M     if (r==2)
                          M     goto $+1
                          M     endif 
                          M     if (r==1)
013C   0000               M     nop
                          M     endif
MPASM 5.83  /HOME/JACQUES/GITHUB/BREAKOUT_15   3-6-2019  10:56:55         PAGE 18


LOC  OBJECT CODE     LINE SOURCE TEXT
  VALUE

013D   160C               M     bsf TRISA,VIDEO_OUT
013E   08??           00631     movfw ball_x
013F   1903           00632     skpnz
0140   3???           00633     bra ball_left
0141   0B89           00634     decfsz WREG
0142   3???           00635     bra $-1
0143                  00636 ball_left
0143   120C           00637     bcf TRISA, VIDEO_OUT
                      00638     tdelay 4
  0001                    M     variable q=(4)/3
  0001                    M     variable r=(4)%3
                          M     if (q)
0144   3001               M     movlw q
0145   0B89               M     decfsz WREG
0146   2???               M     goto $-1
                          M     endif
                          M     if (r==2)
                          M     goto $+1
                          M     endif 
                          M     if (r==1)
0147   0000               M     nop
                          M     endif
0148   160C           00639     bsf TRISA,VIDEO_OUT
                      00640     tdelay 10
  0003                    M     variable q=(10)/3
  0001                    M     variable r=(10)%3
                          M     if (q)
0149   3003               M     movlw q
014A   0B89               M     decfsz WREG
014B   2???               M     goto $-1
                          M     endif
                          M     if (r==2)
                          M     goto $+1
                          M     endif 
                          M     if (r==1)
014C   0000               M     nop
                          M     endif
                      00641     draw_border BORDER_WIDTH
014D   0021               M     banksel TRISA
014E   148C               M     bsf TRISA,CHROMA
014F   120C               M     bcf TRISA,VIDEO_OUT
                          M     tdelay BORDER_WIDTH
  0001                    M     variable q=(BORDER_WIDTH)/3
  0001                    M     variable r=(BORDER_WIDTH)%3
                          M     if (q)
0150   3001               M     movlw q
0151   0B89               M     decfsz WREG
0152   2???               M     goto $-1
                          M     endif
                          M     if (r==2)
                          M     goto $+1
                          M     endif 
                          M     if (r==1)
MPASM 5.83  /HOME/JACQUES/GITHUB/BREAKOUT_15   3-6-2019  10:56:55         PAGE 19


LOC  OBJECT CODE     LINE SOURCE TEXT
  VALUE

0153   0000               M     nop
                          M     endif
0154   160C               M     bsf TRISA,VIDEO_OUT
0155                  00642 draw_void_exit    
0155   0A??           00643     incf slice
0156   0A??           00644     incf lcount
0157   30B6           00645     movlw 8*BRICK_HEIGHT+118
0158   02??           00646     subwf slice,W
0159   1D03           00647     skpz
                      00648     leave
015A   2???               M     goto isr_exit
015B   3012           00649     movlw 18
015C   01??           00650     clrf slice
015D   00??           00651     movwf task
                      00652     leave
015E   2???               M     goto isr_exit
                      00653     ;    next_task 125*BRICK_HEIGHT
015F                  00654 no_wall_draw
                      00655     next_task 2*BRICK_HEIGHT
015F   0A??               M     incf slice
0160   3010               M     movlw 2*BRICK_HEIGHT
0161   02??               M     subwf slice,W
0162   1D03               M     skpz
                          M     leave
0163   2???               M     goto isr_exit
0164   01??               M     clrf slice
0165   0A??               M     incf task
0166   3010               M     movlw 2*BRICK_HEIGHT
0167   07??               M     addwf lcount
                          M     leave
0168   2???               M     goto isr_exit
                      00656     
                      00657 ; task 11, draw top brick row
0169                  00658 draw_row1 ; yellow
                      00659     chroma_ref
0169   003B               M     banksel PWM1CON
016A   121B               M     bcf PWM1CON,POL
016B   002?           00660     banksel row1
016C   08??           00661     movfw row1
016D   00??           00662     movwf temp
                      00663     tdelay LEFT_MARGIN-4
  0006                    M     variable q=(LEFT_MARGIN-4)/3
  0002                    M     variable r=(LEFT_MARGIN-4)%3
                          M     if (q)
016E   3006               M     movlw q
016F   0B89               M     decfsz WREG
0170   2???               M     goto $-1
                          M     endif
                          M     if (r==2)
0171   2???               M     goto $+1
                          M     endif 
                          M     if (r==1)
                          M     nop
MPASM 5.83  /HOME/JACQUES/GITHUB/BREAKOUT_15   3-6-2019  10:56:55         PAGE 20


LOC  OBJECT CODE     LINE SOURCE TEXT
  VALUE

                          M     endif
                      00664 ;    draw_border BORDER_WIDTH
                      00665     draw_wall yellow
  0000                    M     local next_brick
0172   3008               M     movlw 8
                          M     pushw
0173   0019               M     movwi --SP
0174                      M next_brick    
0174   35??               M     lslf temp
                          M     draw_brick yellow
  0000                    M     local no_brick
  0000                    M     local brick_delay
0175   1C03               M     skpc
0176   3???               M     bra no_brick
                          M     yellow
                          M ;    chroma_ref
0177   0021               M     banksel TRISA
0178   120C               M     bcf TRISA,VIDEO_OUT
0179   108C               M     bcf TRISA,CHROMA
017A   3???               M     bra brick_delay
017B                      M no_brick
017B   0000               M     nop
                          M     black
017C   0021               M     banksel TRISA
017D   148C               M     bsf TRISA,CHROMA
017E   160C               M     bsf TRISA,VIDEO_OUT
                          M ;    goto $+1
017F   3???               M     bra brick_delay 
0180                      M brick_delay    
                          M     tdelay BRICK_WIDTH
  0009                    M     variable q=(BRICK_WIDTH)/3
  0001                    M     variable r=(BRICK_WIDTH)%3
                          M     if (q)
0180   3009               M     movlw q
0181   0B89               M     decfsz WREG
0182   2???               M     goto $-1
                          M     endif
                          M     if (r==2)
                          M     goto $+1
                          M     endif 
                          M     if (r==1)
0183   0000               M     nop
                          M     endif
0184   0B80               M     decfsz T
0185   3???               M     bra next_brick
                          M     dropn 1
0186   3101               M     addfsr T,1
                      00666     black
0187   0021               M     banksel TRISA
0188   148C               M     bsf TRISA,CHROMA
0189   160C               M     bsf TRISA,VIDEO_OUT
                          M ;    goto $+1
                      00667     tdelay 3
MPASM 5.83  /HOME/JACQUES/GITHUB/BREAKOUT_15   3-6-2019  10:56:55         PAGE 21


LOC  OBJECT CODE     LINE SOURCE TEXT
  VALUE

  0001                    M     variable q=(3)/3
  0000                    M     variable r=(3)%3
                          M     if (q)
018A   3001               M     movlw q
018B   0B89               M     decfsz WREG
018C   2???               M     goto $-1
                          M     endif
                          M     if (r==2)
                          M     goto $+1
                          M     endif 
                          M     if (r==1)
                          M     nop
                          M     endif
                      00668 ;    draw_border BORDER_WIDTH
                      00669     next_task BRICK_HEIGHT
018D   0A??               M     incf slice
018E   3008               M     movlw BRICK_HEIGHT
018F   02??               M     subwf slice,W
0190   1D03               M     skpz
                          M     leave
0191   2???               M     goto isr_exit
0192   01??               M     clrf slice
0193   0A??               M     incf task
0194   3008               M     movlw BRICK_HEIGHT
0195   07??               M     addwf lcount
                          M     leave
0196   2???               M     goto isr_exit
                      00670     
                      00671 ; task 12, draw 2nd brick row    
0197                  00672 draw_row2 ;cyan
                      00673     chroma_invert
0197   003B               M     banksel PWM1CON
0198   161B               M     bsf PWM1CON,POL
0199   002?           00674     banksel row2
019A   08??           00675     movfw row2
019B   00??           00676     movwf temp
                      00677     tdelay LEFT_MARGIN-4
  0006                    M     variable q=(LEFT_MARGIN-4)/3
  0002                    M     variable r=(LEFT_MARGIN-4)%3
                          M     if (q)
019C   3006               M     movlw q
019D   0B89               M     decfsz WREG
019E   2???               M     goto $-1
                          M     endif
                          M     if (r==2)
019F   2???               M     goto $+1
                          M     endif 
                          M     if (r==1)
                          M     nop
                          M     endif
                      00678 ;    draw_border BORDER_WIDTH
                      00679     draw_wall cyan
  0000                    M     local next_brick
MPASM 5.83  /HOME/JACQUES/GITHUB/BREAKOUT_15   3-6-2019  10:56:55         PAGE 22


LOC  OBJECT CODE     LINE SOURCE TEXT
  VALUE

01A0   3008               M     movlw 8
                          M     pushw
01A1   0019               M     movwi --SP
01A2                      M next_brick    
01A2   35??               M     lslf temp
                          M     draw_brick cyan
  0000                    M     local no_brick
  0000                    M     local brick_delay
01A3   1C03               M     skpc
01A4   3???               M     bra no_brick
                          M     cyan
                          M ;    chroma_invert
01A5   0021               M     banksel TRISA
01A6   120C               M     bcf TRISA,VIDEO_OUT
01A7   108C               M     bcf TRISA,CHROMA
01A8   3???               M     bra brick_delay
01A9                      M no_brick
01A9   0000               M     nop
                          M     black
01AA   0021               M     banksel TRISA
01AB   148C               M     bsf TRISA,CHROMA
01AC   160C               M     bsf TRISA,VIDEO_OUT
                          M ;    goto $+1
01AD   3???               M     bra brick_delay 
01AE                      M brick_delay    
                          M     tdelay BRICK_WIDTH
  0009                    M     variable q=(BRICK_WIDTH)/3
  0001                    M     variable r=(BRICK_WIDTH)%3
                          M     if (q)
01AE   3009               M     movlw q
01AF   0B89               M     decfsz WREG
01B0   2???               M     goto $-1
                          M     endif
                          M     if (r==2)
                          M     goto $+1
                          M     endif 
                          M     if (r==1)
01B1   0000               M     nop
                          M     endif
01B2   0B80               M     decfsz T
01B3   3???               M     bra next_brick
                          M     dropn 1
01B4   3101               M     addfsr T,1
                      00680     black
01B5   0021               M     banksel TRISA
01B6   148C               M     bsf TRISA,CHROMA
01B7   160C               M     bsf TRISA,VIDEO_OUT
                          M ;    goto $+1
                      00681     tdelay 3
  0001                    M     variable q=(3)/3
  0000                    M     variable r=(3)%3
                          M     if (q)
01B8   3001               M     movlw q
MPASM 5.83  /HOME/JACQUES/GITHUB/BREAKOUT_15   3-6-2019  10:56:55         PAGE 23


LOC  OBJECT CODE     LINE SOURCE TEXT
  VALUE

01B9   0B89               M     decfsz WREG
01BA   2???               M     goto $-1
                          M     endif
                          M     if (r==2)
                          M     goto $+1
                          M     endif 
                          M     if (r==1)
                          M     nop
                          M     endif
                      00682 ;    draw_border BORDER_WIDTH
                      00683     next_task BRICK_HEIGHT
01BB   0A??               M     incf slice
01BC   3008               M     movlw BRICK_HEIGHT
01BD   02??               M     subwf slice,W
01BE   1D03               M     skpz
                          M     leave
01BF   2???               M     goto isr_exit
01C0   01??               M     clrf slice
01C1   0A??               M     incf task
01C2   3008               M     movlw BRICK_HEIGHT
01C3   07??               M     addwf lcount
                          M     leave
01C4   2???               M     goto isr_exit
                      00684 
                      00685 ; task 13, draw 3rd brick row    
01C5                  00686 draw_row3 ; green
                      00687 ;    btfss flags, F_EVEN
                      00688 ;    bra row3_exit
                      00689     chroma_ref
01C5   003B               M     banksel PWM1CON
01C6   121B               M     bcf PWM1CON,POL
01C7   002?           00690     banksel row3
01C8   08??           00691     movfw row3
01C9   00??           00692     movwf temp
                      00693     tdelay LEFT_MARGIN-4
  0006                    M     variable q=(LEFT_MARGIN-4)/3
  0002                    M     variable r=(LEFT_MARGIN-4)%3
                          M     if (q)
01CA   3006               M     movlw q
01CB   0B89               M     decfsz WREG
01CC   2???               M     goto $-1
                          M     endif
                          M     if (r==2)
01CD   2???               M     goto $+1
                          M     endif 
                          M     if (r==1)
                          M     nop
                          M     endif
                      00694 ;    draw_border BORDER_WIDTH
                      00695     draw_wall green
  0000                    M     local next_brick
01CE   3008               M     movlw 8
                          M     pushw
MPASM 5.83  /HOME/JACQUES/GITHUB/BREAKOUT_15   3-6-2019  10:56:55         PAGE 24


LOC  OBJECT CODE     LINE SOURCE TEXT
  VALUE

01CF   0019               M     movwi --SP
01D0                      M next_brick    
01D0   35??               M     lslf temp
                          M     draw_brick green
  0000                    M     local no_brick
  0000                    M     local brick_delay
01D1   1C03               M     skpc
01D2   3???               M     bra no_brick
                          M     green
                          M ;    chroma_ref
01D3   0021               M     banksel TRISA
01D4   160C               M     bsf TRISA, VIDEO_OUT
01D5   108C               M     bcf TRISA,CHROMA
01D6   3???               M     bra brick_delay
01D7                      M no_brick
01D7   0000               M     nop
                          M     black
01D8   0021               M     banksel TRISA
01D9   148C               M     bsf TRISA,CHROMA
01DA   160C               M     bsf TRISA,VIDEO_OUT
                          M ;    goto $+1
01DB   3???               M     bra brick_delay 
01DC                      M brick_delay    
                          M     tdelay BRICK_WIDTH
  0009                    M     variable q=(BRICK_WIDTH)/3
  0001                    M     variable r=(BRICK_WIDTH)%3
                          M     if (q)
01DC   3009               M     movlw q
01DD   0B89               M     decfsz WREG
01DE   2???               M     goto $-1
                          M     endif
                          M     if (r==2)
                          M     goto $+1
                          M     endif 
                          M     if (r==1)
01DF   0000               M     nop
                          M     endif
01E0   0B80               M     decfsz T
01E1   3???               M     bra next_brick
                          M     dropn 1
01E2   3101               M     addfsr T,1
                      00696     black
01E3   0021               M     banksel TRISA
01E4   148C               M     bsf TRISA,CHROMA
01E5   160C               M     bsf TRISA,VIDEO_OUT
                          M ;    goto $+1
                      00697     tdelay 3
  0001                    M     variable q=(3)/3
  0000                    M     variable r=(3)%3
                          M     if (q)
01E6   3001               M     movlw q
01E7   0B89               M     decfsz WREG
01E8   2???               M     goto $-1
MPASM 5.83  /HOME/JACQUES/GITHUB/BREAKOUT_15   3-6-2019  10:56:55         PAGE 25


LOC  OBJECT CODE     LINE SOURCE TEXT
  VALUE

                          M     endif
                          M     if (r==2)
                          M     goto $+1
                          M     endif 
                          M     if (r==1)
                          M     nop
                          M     endif
                      00698 ;    draw_border BORDER_WIDTH
01E9                  00699 row3_exit    
                      00700     next_task BRICK_HEIGHT
01E9   0A??               M     incf slice
01EA   3008               M     movlw BRICK_HEIGHT
01EB   02??               M     subwf slice,W
01EC   1D03               M     skpz
                          M     leave
01ED   2???               M     goto isr_exit
01EE   01??               M     clrf slice
01EF   0A??               M     incf task
01F0   3008               M     movlw BRICK_HEIGHT
01F1   07??               M     addwf lcount
                          M     leave
01F2   2???               M     goto isr_exit
                      00701     
                      00702 ; task 14, draw 4th brick row    
01F3                  00703 draw_row4 ; dark blue
                      00704     chroma_invert
01F3   003B               M     banksel PWM1CON
01F4   161B               M     bsf PWM1CON,POL
01F5   002?           00705     banksel row4
01F6   08??           00706     movfw row4
01F7   00??           00707     movwf temp
                      00708     tdelay LEFT_MARGIN-4
  0006                    M     variable q=(LEFT_MARGIN-4)/3
  0002                    M     variable r=(LEFT_MARGIN-4)%3
                          M     if (q)
01F8   3006               M     movlw q
01F9   0B89               M     decfsz WREG
01FA   2???               M     goto $-1
                          M     endif
                          M     if (r==2)
01FB   2???               M     goto $+1
                          M     endif 
                          M     if (r==1)
                          M     nop
                          M     endif
                      00709 ;    draw_border BORDER_WIDTH
                      00710     draw_wall dark_blue
  0000                    M     local next_brick
01FC   3008               M     movlw 8
                          M     pushw
01FD   0019               M     movwi --SP
01FE                      M next_brick    
01FE   35??               M     lslf temp
MPASM 5.83  /HOME/JACQUES/GITHUB/BREAKOUT_15   3-6-2019  10:56:55         PAGE 26


LOC  OBJECT CODE     LINE SOURCE TEXT
  VALUE

                          M     draw_brick dark_blue
  0000                    M     local no_brick
  0000                    M     local brick_delay
01FF   1C03               M     skpc
0200   3???               M     bra no_brick
                          M     dark_blue
                          M ;    chroma_invert
0201   0021               M     banksel TRISA
0202   160C               M     bsf TRISA, VIDEO_OUT
0203   108C               M     bcf TRISA,CHROMA
0204   3???               M     bra brick_delay
0205                      M no_brick
0205   0000               M     nop
                          M     black
0206   0021               M     banksel TRISA
0207   148C               M     bsf TRISA,CHROMA
0208   160C               M     bsf TRISA,VIDEO_OUT
                          M ;    goto $+1
0209   3???               M     bra brick_delay 
020A                      M brick_delay    
                          M     tdelay BRICK_WIDTH
  0009                    M     variable q=(BRICK_WIDTH)/3
  0001                    M     variable r=(BRICK_WIDTH)%3
                          M     if (q)
020A   3009               M     movlw q
020B   0B89               M     decfsz WREG
020C   2???               M     goto $-1
                          M     endif
                          M     if (r==2)
                          M     goto $+1
                          M     endif 
                          M     if (r==1)
020D   0000               M     nop
                          M     endif
020E   0B80               M     decfsz T
020F   3???               M     bra next_brick
                          M     dropn 1
0210   3101               M     addfsr T,1
                      00711     black
0211   0021               M     banksel TRISA
0212   148C               M     bsf TRISA,CHROMA
0213   160C               M     bsf TRISA,VIDEO_OUT
                          M ;    goto $+1
                      00712     tdelay 3
  0001                    M     variable q=(3)/3
  0000                    M     variable r=(3)%3
                          M     if (q)
0214   3001               M     movlw q
0215   0B89               M     decfsz WREG
0216   2???               M     goto $-1
                          M     endif
                          M     if (r==2)
                          M     goto $+1
MPASM 5.83  /HOME/JACQUES/GITHUB/BREAKOUT_15   3-6-2019  10:56:55         PAGE 27


LOC  OBJECT CODE     LINE SOURCE TEXT
  VALUE

                          M     endif 
                          M     if (r==1)
                          M     nop
                          M     endif
                      00713 ;    draw_border BORDER_WIDTH
                      00714     next_task BRICK_HEIGHT
0217   0A??               M     incf slice
0218   3008               M     movlw BRICK_HEIGHT
0219   02??               M     subwf slice,W
021A   1D03               M     skpz
                          M     leave
021B   2???               M     goto isr_exit
021C   01??               M     clrf slice
021D   0A??               M     incf task
021E   3008               M     movlw BRICK_HEIGHT
021F   07??               M     addwf lcount
                          M     leave
0220   2???               M     goto isr_exit
                      00715 
                      00716 ; task 15, draw 5th brick row    
0221                  00717 draw_row5 ; white
0221   002?           00718     banksel row5
0222   08??           00719     movfw row5
0223   00??           00720     movwf temp
                      00721     tdelay LEFT_MARGIN-3
  0007                    M     variable q=(LEFT_MARGIN-3)/3
  0000                    M     variable r=(LEFT_MARGIN-3)%3
                          M     if (q)
0224   3007               M     movlw q
0225   0B89               M     decfsz WREG
0226   2???               M     goto $-1
                          M     endif
                          M     if (r==2)
                          M     goto $+1
                          M     endif 
                          M     if (r==1)
                          M     nop
                          M     endif
                      00722 ;    draw_border BORDER_WIDTH
                      00723     draw_wall white
  0000                    M     local next_brick
0227   3008               M     movlw 8
                          M     pushw
0228   0019               M     movwi --SP
0229                      M next_brick    
0229   35??               M     lslf temp
                          M     draw_brick white
  0000                    M     local no_brick
  0000                    M     local brick_delay
022A   1C03               M     skpc
022B   3???               M     bra no_brick
                          M     white
022C   0021               M     banksel TRISA
MPASM 5.83  /HOME/JACQUES/GITHUB/BREAKOUT_15   3-6-2019  10:56:55         PAGE 28


LOC  OBJECT CODE     LINE SOURCE TEXT
  VALUE

022D   148C               M     bsf TRISA,CHROMA
022E   120C               M     bcf TRISA,VIDEO_OUT
                          M ;    goto $+1
022F   3???               M     bra brick_delay
0230                      M no_brick
0230   0000               M     nop
                          M     black
0231   0021               M     banksel TRISA
0232   148C               M     bsf TRISA,CHROMA
0233   160C               M     bsf TRISA,VIDEO_OUT
                          M ;    goto $+1
0234   3???               M     bra brick_delay 
0235                      M brick_delay    
                          M     tdelay BRICK_WIDTH
  0009                    M     variable q=(BRICK_WIDTH)/3
  0001                    M     variable r=(BRICK_WIDTH)%3
                          M     if (q)
0235   3009               M     movlw q
0236   0B89               M     decfsz WREG
0237   2???               M     goto $-1
                          M     endif
                          M     if (r==2)
                          M     goto $+1
                          M     endif 
                          M     if (r==1)
0238   0000               M     nop
                          M     endif
0239   0B80               M     decfsz T
023A   3???               M     bra next_brick
                          M     dropn 1
023B   3101               M     addfsr T,1
                      00724     black
023C   0021               M     banksel TRISA
023D   148C               M     bsf TRISA,CHROMA
023E   160C               M     bsf TRISA,VIDEO_OUT
                          M ;    goto $+1
                      00725     tdelay 3
  0001                    M     variable q=(3)/3
  0000                    M     variable r=(3)%3
                          M     if (q)
023F   3001               M     movlw q
0240   0B89               M     decfsz WREG
0241   2???               M     goto $-1
                          M     endif
                          M     if (r==2)
                          M     goto $+1
                          M     endif 
                          M     if (r==1)
                          M     nop
                          M     endif
                      00726 ;    draw_border BORDER_WIDTH
                      00727     black
0242   0021               M     banksel TRISA
MPASM 5.83  /HOME/JACQUES/GITHUB/BREAKOUT_15   3-6-2019  10:56:55         PAGE 29


LOC  OBJECT CODE     LINE SOURCE TEXT
  VALUE

0243   148C               M     bsf TRISA,CHROMA
0244   160C               M     bsf TRISA,VIDEO_OUT
                          M ;    goto $+1
                      00728     next_task BRICK_HEIGHT
0245   0A??               M     incf slice
0246   3008               M     movlw BRICK_HEIGHT
0247   02??               M     subwf slice,W
0248   1D03               M     skpz
                          M     leave
0249   2???               M     goto isr_exit
024A   01??               M     clrf slice
024B   0A??               M     incf task
024C   3008               M     movlw BRICK_HEIGHT
024D   07??               M     addwf lcount
                          M     leave
024E   2???               M     goto isr_exit
                      00729 
                      00730 ; task 16,draw all rows between paddle and lower brick row    
024F                  00731 draw_empty
                      00732     tdelay LEFT_MARGIN
  0008                    M     variable q=(LEFT_MARGIN)/3
  0000                    M     variable r=(LEFT_MARGIN)%3
                          M     if (q)
024F   3008               M     movlw q
0250   0B89               M     decfsz WREG
0251   2???               M     goto $-1
                          M     endif
                          M     if (r==2)
                          M     goto $+1
                          M     endif 
                          M     if (r==1)
                          M     nop
                          M     endif
                      00733 ;    draw_border BORDER_WIDTH
                      00734     tdelay 320
  006A                    M     variable q=(320)/3
  0002                    M     variable r=(320)%3
                          M     if (q)
0252   306A               M     movlw q
0253   0B89               M     decfsz WREG
0254   2???               M     goto $-1
                          M     endif
                          M     if (r==2)
0255   2???               M     goto $+1
                          M     endif 
                          M     if (r==1)
                          M     nop
                          M     endif
                      00735 ;    draw_border BORDER_WIDTH
                      00736     black
0256   0021               M     banksel TRISA
0257   148C               M     bsf TRISA,CHROMA
0258   160C               M     bsf TRISA,VIDEO_OUT
MPASM 5.83  /HOME/JACQUES/GITHUB/BREAKOUT_15   3-6-2019  10:56:55         PAGE 30


LOC  OBJECT CODE     LINE SOURCE TEXT
  VALUE

                          M ;    goto $+1
                      00737     next_task 118
0259   0A??               M     incf slice
025A   3076               M     movlw 118
025B   02??               M     subwf slice,W
025C   1D03               M     skpz
                          M     leave
025D   2???               M     goto isr_exit
025E   01??               M     clrf slice
025F   0A??               M     incf task
0260   3076               M     movlw 118
0261   07??               M     addwf lcount
                          M     leave
0262   2???               M     goto isr_exit
                      00738 
                      00739     
                      00740 ; task 17, draw paddle at bottom screen    
0263                  00741 draw_paddle
                      00742     tdelay LEFT_MARGIN+2
  0008                    M     variable q=(LEFT_MARGIN+2)/3
  0002                    M     variable r=(LEFT_MARGIN+2)%3
                          M     if (q)
0263   3008               M     movlw q
0264   0B89               M     decfsz WREG
0265   2???               M     goto $-1
                          M     endif
                          M     if (r==2)
0266   2???               M     goto $+1
                          M     endif 
                          M     if (r==1)
                          M     nop
                          M     endif
0267   08??           00743     movfw paddle_pos
0268   1903           00744     skpnz
0269   3???           00745     bra $+3
026A   0B89           00746     decfsz WREG
026B   3???           00747     bra $-1
026C   0021           00748     banksel TRISA
026D   120C           00749     bcf TRISA,VIDEO_OUT
                      00750     tdelay PADDLE_WIDTH
  000A                    M     variable q=(PADDLE_WIDTH)/3
  0002                    M     variable r=(PADDLE_WIDTH)%3
                          M     if (q)
026E   300A               M     movlw q
026F   0B89               M     decfsz WREG
0270   2???               M     goto $-1
                          M     endif
                          M     if (r==2)
0271   2???               M     goto $+1
                          M     endif 
                          M     if (r==1)
                          M     nop
                          M     endif
MPASM 5.83  /HOME/JACQUES/GITHUB/BREAKOUT_15   3-6-2019  10:56:55         PAGE 31


LOC  OBJECT CODE     LINE SOURCE TEXT
  VALUE

0272   160C           00751     bsf TRISA,VIDEO_OUT
                      00752 ;    draw_border BORDER_WIDTH
                      00753 ;    movfw paddle_pos
                      00754 ;    skpnz
                      00755 ;    bcf TRISA,VIDEO_OUT
                      00756 ;    skpnz
                      00757 ;    bra at_left+2
                      00758 ;    decfsz WREG
                      00759 ;    bra $-1
                      00760 ;at_left
                      00761 ;    nop
                      00762 ;    bcf TRISA,VIDEO_OUT
                      00763 ;    tdelay PADDLE_WIDTH
                      00764 ;    movfw paddle_pos
                      00765 ;    sublw PADDLE_LIMIT
                      00766 ;    nop
                      00767 ;    skpnz
                      00768 ;    bra $+5
                      00769 ;    nop
                      00770 ;    bsf TRISA,VIDEO_OUT
                      00771 ;    decfsz WREG
                      00772 ;    bra $-1
                      00773 ;    draw_border BORDER_WIDTH
                      00774     next_task 8
0273   0A??               M     incf slice
0274   3008               M     movlw 8
0275   02??               M     subwf slice,W
0276   1D03               M     skpz
                          M     leave
0277   2???               M     goto isr_exit
0278   01??               M     clrf slice
0279   0A??               M     incf task
027A   3008               M     movlw 8
027B   07??               M     addwf lcount
                          M     leave
027C   2???               M     goto isr_exit
                      00775 
                      00776 ; task 18,  wait end of this field, reset task to zero    
027D                  00777 wait_field_end
027D   0A??           00778     incf lcount
027E   1903           00779     skpnz
027F   1400           00780     bsf flags, F_HI_LINE
0280   1800           00781     btfsc flags, F_HI_LINE
0281   2???           00782     goto hi_line
                      00783     leave
0282   2???               M     goto isr_exit
0283                  00784 hi_line
0283   1880           00785     btfsc flags,F_EVEN
0284   2???           00786     goto even_field
0285   3005           00787     movlw 5
0286   02??           00788     subwf lcount,W
0287   1D03           00789     skpz
                      00790     leave
MPASM 5.83  /HOME/JACQUES/GITHUB/BREAKOUT_15   3-6-2019  10:56:55         PAGE 32


LOC  OBJECT CODE     LINE SOURCE TEXT
  VALUE

0288   2???               M     goto isr_exit
0289   2???           00791     goto field_end
028A                  00792 even_field
028A   3006           00793     movlw 6
028B   02??           00794     subwf lcount,W
028C   1D03           00795     skpz
                      00796     leave
028D   2???               M     goto isr_exit
                      00797 ; even field last line is half_line    
                      00798 ; set PWM3 for line 263 half-line
028E   003B           00799     banksel PWM3DC
028F   3003           00800     movlw high HALF_LINE
0290   00B6           00801     movwf PWM3PRH
0291   308D           00802     movlw low HALF_LINE
0292   00B5           00803     movwf PWM3PRL
0293   17BF           00804     bsf PWM3LDCON,7
0294                  00805 field_end
0294   01??           00806     clrf task
0295   01??           00807     clrf slice
0296   01??           00808     clrf lcount
0297   1000           00809     bcf flags, F_HI_LINE
0298   1680           00810     bsf flags, F_SYNC
                      00811 ; toggle odd/even field flag    
0299   3002           00812     movlw 1<<F_EVEN
029A   06??           00813     xorwf flags
                      00814     leave
029B   2???               M     goto isr_exit
                      00815 
                      00816 ; helper functions
                      00817 
                      00818 ; add 2 BCD digits
                      00819 ; parameters:
                      00820 ;   WREG -> first digit
                      00821 ;   T -> second digit
                      00822 ;   C -> carry from previous digits add    
                      00823 ; output:
                      00824 ;   T -> sum
                      00825 ;   C -> overflow
029C                  00826 bcd_add
029C   3D80           00827     addwfc T
029D   300A           00828     movlw 10
029E   0200           00829     subwf T,W
029F   1C03           00830     skpc
02A0   0008           00831     return
02A1   3006           00832     movlw 6
02A2   0780           00833     addwf T
02A3   300F           00834     movlw 15
02A4   0580           00835     andwf T
02A5   1403           00836     bsf STATUS,C
02A6   0008           00837     return
                      00838     
                      00839 ; increment user score
                      00840 ; This is a BCD addition where a single digit is added to score.   
MPASM 5.83  /HOME/JACQUES/GITHUB/BREAKOUT_15   3-6-2019  10:56:55         PAGE 33


LOC  OBJECT CODE     LINE SOURCE TEXT
  VALUE

                      00841 ; score is stored as big indian
                      00842 ; argument: ( n -- )
                      00843 ;   WREG ->  bdc digit to add to score variable
02A7                  00844 inc_score
                      00845     pushw
02A7   0019               M     movwi --SP
02A8   1003           00846     clrc
02A9   300F           00847     movlw 15
02AA   05??           00848     andwf score+1,W
02AB   2???           00849     call bcd_add
02AC   0103           00850     clrw 
                      00851     pushw
02AD   0019               M     movwi --SP
02AE   0E??           00852     swapf score+1,W
02AF   390F           00853     andlw 15
02B0   2???           00854     call bcd_add
02B1   1803           00855     skpnc
02B2   0A??           00856     incf score
                      00857     popw
02B3   0012               M     moviw SP++
02B4   0E89           00858     swapf WREG
02B5   0400           00859     iorwf T,W
02B6   00??           00860     movwf score+1
                      00861     dropn 1
02B7   3101               M     addfsr T,1
02B8   0008           00862     return
                      00863     
                      00864 ;***********************************
                      00865 ; digit_offset, compute digit position in 'digits' table
                      00866 ;   position = digit * 5
                      00867 ; 
                      00868 ; input: WREG -> digit value {0..9}
                      00869 ;         
                      00870 ; output: WREG -> displacement in table
                      00871 ;***********************************
02B9                  00872 digit_offset    
                      00873     pushw 
02B9   0019               M     movwi --SP
02BA   3589           00874     lslf WREG
02BB   3589           00875     lslf WREG
02BC   0780           00876     addwf T
                      00877     popw
02BD   0012               M     moviw SP++
02BE   0008           00878     return
                      00879     
02BF                  00880 init_brick_wall
02BF   30??           00881     movlw high brick_wall
02C0   0087           00882     movwf FSR1H
02C1   30??           00883     movlw low brick_wall
02C2   0086           00884     movwf FSR1L
02C3   3005           00885     movlw 5
02C4   00??           00886     movwf temp
02C5   30FF           00887     movlw 0xff
MPASM 5.83  /HOME/JACQUES/GITHUB/BREAKOUT_15   3-6-2019  10:56:55         PAGE 34


LOC  OBJECT CODE     LINE SOURCE TEXT
  VALUE

02C6                  00888 ibw    
02C6   001E           00889     movwi FSR1++
02C7   0B??           00890     decfsz temp
02C8   3???           00891     bra ibw
02C9   0008           00892     return
                      00893 
                      00894 ; delay by TIMER0
                      00895 ; parameter
                      00896 ;   WREG -> 2*Tcy+7cy    
02CA                  00897 t0delay 
02CA   0989           00898     comf WREG
02CB   0095           00899     movwf TMR0
02CC   110B           00900     bcf INTCON,T0IF
02CD   1D0B           00901     btfss INTCON,T0IF
02CE   3???           00902     bra $-1
02CF   0008           00903     return
                      00904     
                      00905 MAIN_PROG CODE                      ; let linker place main program
                      00906 
0000                  00907 START
                      00908 ; clear common RAM
0000   0185           00909     clrf FSR0H
0001   3070           00910     movlw 0x70
0002   0084           00911     movwf FSR0L
0003   0103           00912     clrw
0004   001A           00913     movwi FSR0++
0005   1F84           00914     btfss FSR0L,7
0006   3???           00915     bra $-2
                      00916 ; clear banked RAM
0007   0184           00917     clrf FSR0L
0008   3020           00918     movlw 0x20
0009   0085           00919     movwf FSR0H
000A   0103           00920     clrw 
000B   001A           00921     movwi FSR0++
000C   1C05           00922     btfss FSR0H,0
000D   3???           00923     bra $-2
000E   2???           00924     call init_brick_wall
                      00925 ;   setup arguments stack pointer
000F   30??           00926     movlw high (stack+STACK_SIZE)
0010   0085           00927     movwf FSR0H
0011   30??           00928     movlw low (stack+STACK_SIZE)
0012   0084           00929     movwf FSR0L
                      00930 ; setup OPTION register to enable weak pullup and prescale used by TIMER
                      00931 ; TIMER0 prescale 1:2
0013   3050           00932     movlw ~((1<<NOT_WPUEN)|(1<<TMR0CS)|(1<<PSA)|(7<<PS0_OPTION_REG))
0014   0095           00933     movwf OPTION_REG
                      00934 ; disable analog inputs, except AN0
0015   0023           00935     banksel ANSELA
0016   018C           00936     clrf ANSELA
                      00937 ; paddle potentiometer input     
0017   140C           00938     bsf ANSELA,PADDLE
0018   0021           00939     banksel ADCON1
0019   3020           00940     movlw (2<<ADCS0)
MPASM 5.83  /HOME/JACQUES/GITHUB/BREAKOUT_15   3-6-2019  10:56:55         PAGE 35


LOC  OBJECT CODE     LINE SOURCE TEXT
  VALUE

001A   009E           00941     movwf ADCON1
                      00942 ; pin setup
001B   0024           00943     banksel WPUA
001C   018C           00944     clrf WPUA
001D   158C           00945     bsf WPUA,START_BTN
001E   0021           00946     banksel TRISA
001F   110C           00947     bcf TRISA,SYNC_OUT
0020   0022           00948     banksel LATA
0021   160C           00949     bsf LATA, VIDEO_OUT
                      00950 ; PWM1 chroma signal on RA1
0022   003B           00951     banksel PWM1CON
0023   019F           00952     clrf PWM1LDCON
0024   0191           00953     clrf PWM1PHL
0025   0192           00954     clrf PWM1PHH
0026   0197           00955     clrf PWM1OFL
0027   0198           00956     clrf PWM1OFH
0028   0196           00957     clrf PWM1PRH
0029   3007           00958     movlw 7
002A   0095           00959     movwf PWM1PRL
002B   3004           00960     movlw 4
002C   0093           00961     movwf PWM1DCL
002D   0194           00962     clrf PWM1DCH
002E   179F           00963     bsf PWM1LDCON,7
002F   30C0           00964     movlw (1<<EN)|(1<<OE)
0030   009B           00965     movwf PWM1CON
                      00966 ; PWM3 set to horizontal period 15734 hertz, output on RA2
0031   003B           00967     banksel PWM3CON
0032   01BF           00968     clrf PWM3LDCON
0033   01B1           00969     clrf PWM3PHL
0034   01B2           00970     clrf PWM3PHH
0035   01B7           00971     clrf PWM3OFL
0036   01B8           00972     clrf PWM3OFH
0037   301B           00973     movlw low HPERIOD
0038   00B5           00974     movwf PWM3PRL
0039   3007           00975     movlw high HPERIOD
003A   00B6           00976     movwf PWM3PRH
003B   3086           00977     movlw HSYNC
003C   00B3           00978     movwf PWM3DCL
003D   01B4           00979     clrf PWM3DCH
003E   30D0           00980     movlw (1<<EN)|(1<<OE)|(1<<POL)
003F   00BB           00981     movwf PWM3CON
0040   17BF           00982     bsf PWM3LDCON,7
0041   143C           00983     bsf PWM3INTE,PRIE
0042   0020           00984     banksel PIR3
0043   1313           00985     bcf PIR3,PWM3IF
0044   0021           00986     banksel PIE3
0045   1713           00987     bsf PIE3,PWM3IE
0046   170B           00988     bsf INTCON,PEIE
0047   178B           00989     bsf INTCON,GIE
0048   1480           00990     bsf flags, F_EVEN
0049   1680           00991     bsf flags, F_SYNC
                      00992 ; test code
004A   002?           00993     banksel balls
MPASM 5.83  /HOME/JACQUES/GITHUB/BREAKOUT_15   3-6-2019  10:56:55         PAGE 36


LOC  OBJECT CODE     LINE SOURCE TEXT
  VALUE

004B   3003           00994     movlw 3
004C   00??           00995     movwf balls
004D   304E           00996     movlw BALL_LEFT_BOUND+PADDLE_LIMIT/2
004E   00??           00997     movwf ball_x
004F   30C8           00998     movlw BALL_BOTTOM_BOUND-40
0050   00??           00999     movwf ball_y
0051                  01000 test_loop
0051   303C           01001     movlw 60
0052   002?           01002     banksel sound_timer
0053   00??           01003     movwf sound_timer
0054   1600           01004     bsf flags, F_SOUND
0055   1A00           01005     btfsc flags, F_SOUND
0056   3???           01006     bra $-1
0057   3001           01007     movlw 1
0058   2???           01008     call inc_score
0059   3???           01009     bra test_loop
                      01010 ; end test code    
                      01011  ; all processing done in ISR    
005A   2???           01012     goto $
                      01013 
                      01014 ; digits character table
005B                  01015 digits
005B   000B           01016     brw
005C   3440 34A0 34A0 01017     dt  0x40,0xA0,0xA0,0xA0,0x40 ; 0
       34A0 3440 
0061   3440 34C0 3440 01018     dt  0x40,0xC0,0x40,0x40,0xE0 ; 1
       3440 34E0 
0066   34E0 3420 34C0 01019     dt  0xE0,0x20,0xC0,0x80,0xE0 ; 2
       3480 34E0 
006B   34E0 3420 34C0 01020     dt  0xE0,0x20,0xC0,0x20,0xE0 ; 3
       3420 34E0 
0070   34A0 34A0 34E0 01021     dt  0xA0,0xA0,0xE0,0x20,0x20 ; 4
       3420 3420 
0075   34E0 3480 34E0 01022     dt  0xE0,0x80,0xE0,0x20,0xE0 ; 5
       3420 34E0 
007A   34C0 3480 34E0 01023     dt  0xC0,0x80,0xE0,0xA0,0xE0 ; 6
       34A0 34E0 
007F   34E0 3420 3420 01024     dt  0xE0,0x20,0x20,0x20,0x20 ; 7
       3420 3420 
0084   34E0 34A0 34E0 01025     dt  0xE0,0xA0,0xE0,0xA0,0xE0 ; 8
       34A0 34E0 
0089   34E0 34A0 34E0 01026     dt  0xE0,0xA0,0xE0,0x20,0x60 ; 9
       3420 3460 
                      01027     
                      01028     
                      01029 eeprom org (PROG_SIZE-EEPROM_SIZE)
0780                  01030 max_score 
                      01031  
3FA7 3EFF             01032     END
MPASM 5.83  /HOME/JACQUES/GITHUB/BREAKOUT_15   3-6-2019  10:56:55         PAGE 37


SYMBOL TABLE
  LABEL                             VALUE 

ABDEN                             00000000
ABDOVF                            00000007
ADCON0                            0000009D
ADCON1                            0000009E
ADCON2                            0000009F
ADCS0                             00000004
ADCS1                             00000005
ADCS2                             00000006
ADDEN                             00000003
ADFM                              00000007
ADFVR0                            00000000
ADFVR1                            00000001
ADGO                              00000001
ADIE                              00000006
ADIF                              00000006
ADON                              00000000
ADPREF0                           00000000
ADPREF1                           00000001
ADRES                             0000009B
ADRESH                            0000009C
ADRESL                            0000009B
ANSA0                             00000000
ANSA1                             00000001
ANSA2                             00000002
ANSA4                             00000004
ANSELA                            0000018C
APFCON                            0000011D
APFCON0                           0000011D
AUDIO                             00000000
BALL_BOTTOM_BOUND                 000000F0
BALL_LEFT_BOUND                   00000020
BALL_RIGHT_BOUND                  00000136
BALL_TOP_BOUND                    00000036
BAUDCON                           0000019F
BORCON                            00000116
BORDER_WIDTH                      00000004
BORFS                             00000006
BORRDY                            00000000
BRG16                             00000003
BRGH                              00000002
BRICK_HEIGHT                      00000008
BRICK_WIDTH                       0000001C
BSR                               00000008
BSR0                              00000000
BSR1                              00000001
BSR2                              00000002
BSR3                              00000003
BSR4                              00000004
BSR_SHAD                          00000FE6
C                                 00000000
C1HYS                             00000001
C1IE                              00000005
C1IF                              00000005
MPASM 5.83  /HOME/JACQUES/GITHUB/BREAKOUT_15   3-6-2019  10:56:55         PAGE 38


SYMBOL TABLE
  LABEL                             VALUE 

C1INTN                            00000006
C1INTP                            00000007
C1NCH0                            00000000
C1NCH1                            00000001
C1NCH2                            00000002
C1OE                              00000005
C1ON                              00000007
C1OUT                             00000006
C1PCH0                            00000004
C1PCH1                            00000005
C1POL                             00000004
C1SP                              00000002
C1SYNC                            00000000
CDAFVR0                           00000002
CDAFVR1                           00000003
CFGS                              00000006
CHROMA                            00000001
CHS0                              00000002
CHS1                              00000003
CHS2                              00000004
CHS3                              00000005
CHS4                              00000006
CLKIN                             00000005
CM1CON0                           00000111
CM1CON1                           00000112
CMOUT                             00000115
COURT_WIDTH                       00000130
CREN                              00000004
CS0                               00000000
CS1                               00000001
CSRC                              00000007
CWG1CON0                          00000693
CWG1CON1                          00000694
CWG1CON2                          00000695
CWG1DBF                           00000692
CWG1DBF0                          00000000
CWG1DBF1                          00000001
CWG1DBF2                          00000002
CWG1DBF3                          00000003
CWG1DBF4                          00000004
CWG1DBF5                          00000005
CWG1DBR                           00000691
CWG1DBR0                          00000000
CWG1DBR1                          00000001
CWG1DBR2                          00000002
CWG1DBR3                          00000003
CWG1DBR4                          00000004
CWG1DBR5                          00000005
CWGASEL                           00000006
CWGBSEL                           00000005
C_SHAD                            00000000
DACCON0                           00000118
DACCON1                           00000119
MPASM 5.83  /HOME/JACQUES/GITHUB/BREAKOUT_15   3-6-2019  10:56:55         PAGE 39


SYMBOL TABLE
  LABEL                             VALUE 

DACEN                             00000007
DACLPS                            00000006
DACOE                             00000005
DACPSS0                           00000002
DACPSS1                           00000003
DACR0                             00000000
DACR1                             00000001
DACR2                             00000002
DACR3                             00000003
DACR4                             00000004
DC                                00000001
DCIE                              00000001
DCIF                              00000001
DC_SHAD                           00000001
EEPROM_SIZE                       00000080
EN                                00000007
F                                 00000001
FERR                              00000002
FIRST_VIDEO_LINE                  0000001A
FREE                              00000004
FSR0                              00000004
FSR0H                             00000005
FSR0H_SHAD                        00000FE9
FSR0L                             00000004
FSR0L_SHAD                        00000FE8
FSR0_SHAD                         00000FE8
FSR1                              00000006
FSR1H                             00000007
FSR1H_SHAD                        00000FEB
FSR1L                             00000006
FSR1L_SHAD                        00000FEA
FSR1_SHAD                         00000FEA
FVRCON                            00000117
FVREN                             00000007
FVRRDY                            00000006
F_EVEN                            00000001
F_HI_LINE                         00000000
F_OVER                            00000003
F_SOUND                           00000004
F_START                           00000002
F_SYNC                            00000005
Fcy                               006D3CD8
Fhorz                             00003D76
Fosc                              01B4F360
G1ARSEN                           00000006
G1ASDLA0                          00000004
G1ASDLA1                          00000005
G1ASDLB0                          00000006
G1ASDLB1                          00000007
G1ASDSC1                          00000002
G1ASDSFLT                         00000001
G1ASE                             00000007
G1CS0                             00000000
MPASM 5.83  /HOME/JACQUES/GITHUB/BREAKOUT_15   3-6-2019  10:56:55         PAGE 40


SYMBOL TABLE
  LABEL                             VALUE 

G1EN                              00000007
G1IS0                             00000000
G1IS1                             00000001
G1IS2                             00000002
G1OEA                             00000005
G1OEB                             00000006
G1POLA                            00000003
G1POLB                            00000004
GIE                               00000007
GO                                00000001
GO_NOT_DONE                       00000001
HALF_LINE                         0000038D
HEQUAL                            00000041
HFIOFL                            00000003
HFIOFR                            00000004
HFIOFS                            00000000
HPERIOD                           0000071B
HSYNC                             00000086
INDF0                             00000000
INDF1                             00000001
INLVLA                            0000038C
INLVLA0                           00000000
INLVLA1                           00000001
INLVLA2                           00000002
INLVLA3                           00000003
INLVLA4                           00000004
INLVLA5                           00000005
INTCON                            0000000B
INTE                              00000004
INTEDG                            00000006
INTF                              00000001
IOCAF                             00000393
IOCAF0                            00000000
IOCAF1                            00000001
IOCAF2                            00000002
IOCAF3                            00000003
IOCAF4                            00000004
IOCAF5                            00000005
IOCAN                             00000392
IOCAN0                            00000000
IOCAN1                            00000001
IOCAN2                            00000002
IOCAN3                            00000003
IOCAN4                            00000004
IOCAN5                            00000005
IOCAP                             00000391
IOCAP0                            00000000
IOCAP1                            00000001
IOCAP2                            00000002
IOCAP3                            00000003
IOCAP4                            00000004
IOCAP5                            00000005
IOCIE                             00000003
MPASM 5.83  /HOME/JACQUES/GITHUB/BREAKOUT_15   3-6-2019  10:56:55         PAGE 41


SYMBOL TABLE
  LABEL                             VALUE 

IOCIF                             00000000
IRCF0                             00000003
IRCF1                             00000004
IRCF2                             00000005
IRCF3                             00000006
LATA                              0000010C
LATA0                             00000000
LATA1                             00000001
LATA2                             00000002
LATA4                             00000004
LATA5                             00000005
LDA                               00000007
LDS0                              00000000
LDS1                              00000001
LDT                               00000006
LEFT_MARGIN                       00000018
LFIOFR                            00000001
LWLO                              00000005
MC1OUT                            00000000
MFIOFR                            00000002
MODE0                             00000002
MODE1                             00000003
MPWM1EN                           00000000
MPWM1LD                           00000000
MPWM1OUT                          00000000
MPWM2EN                           00000001
MPWM2LD                           00000001
MPWM2OUT                          00000001
MPWM3EN                           00000002
MPWM3LD                           00000002
MPWM3OUT                          00000002
NOT_BOR                           00000000
NOT_DONE                          00000001
NOT_PD                            00000003
NOT_POR                           00000001
NOT_RI                            00000002
NOT_RMCLR                         00000003
NOT_RWDT                          00000004
NOT_T1SYNC                        00000002
NOT_TO                            00000004
NOT_WPUEN                         00000007
ODA0                              00000000
ODA1                              00000001
ODA2                              00000002
ODA4                              00000004
ODA5                              00000005
ODCONA                            0000028C
OE                                00000006
OERR                              00000001
OFIE                              00000003
OFIF                              00000003
OFM0                              00000005
OFM1                              00000006
MPASM 5.83  /HOME/JACQUES/GITHUB/BREAKOUT_15   3-6-2019  10:56:55         PAGE 42


SYMBOL TABLE
  LABEL                             VALUE 

OFO                               00000004
OFS0                              00000000
OFS1                              00000001
OPTION_REG                        00000095
OSCCON                            00000099
OSCSTAT                           0000009A
OSCTUNE                           00000098
OSTS                              00000005
OUT                               00000005
P1SEL                             00000000
P2SEL                             00000001
PADDLE                            00000000
PADDLE_LIMIT                      0000005D
PADDLE_WIDTH                      00000020
PCL                               00000002
PCLATH                            0000000A
PCLATH_SHAD                       00000FE7
PCON                              00000096
PEIE                              00000006
PHIE                              00000002
PHIF                              00000002
PIE1                              00000091
PIE2                              00000092
PIE3                              00000093
PIR1                              00000011
PIR2                              00000012
PIR3                              00000013
PLLR                              00000006
PMADR                             00000191
PMADRH                            00000192
PMADRL                            00000191
PMCON1                            00000195
PMCON2                            00000196
PMDAT                             00000193
PMDATH                            00000194
PMDATL                            00000193
POL                               00000004
PORTA                             0000000C
PR2                               0000001B
PRIE                              00000000
PRIF                              00000000
PROG_SIZE                         00000800
PS0_OPTION_REG                    00000000
PS0_PWM1CLKCON                    00000004
PS0_PWM2CLKCON                    00000004
PS0_PWM3CLKCON                    00000004
PS1_OPTION_REG                    00000001
PS1_PWM1CLKCON                    00000005
PS1_PWM2CLKCON                    00000005
PS1_PWM3CLKCON                    00000005
PS2_OPTION_REG                    00000002
PS2_PWM1CLKCON                    00000006
PS2_PWM2CLKCON                    00000006
MPASM 5.83  /HOME/JACQUES/GITHUB/BREAKOUT_15   3-6-2019  10:56:55         PAGE 43


SYMBOL TABLE
  LABEL                             VALUE 

PS2_PWM3CLKCON                    00000006
PSA                               00000003
PWM1CLKCON                        00000D9E
PWM1CON                           00000D9B
PWM1CS0                           00000000
PWM1CS1                           00000001
PWM1DC                            00000D93
PWM1DCH                           00000D94
PWM1DCH0                          00000000
PWM1DCH1                          00000001
PWM1DCH2                          00000002
PWM1DCH3                          00000003
PWM1DCH4                          00000004
PWM1DCH5                          00000005
PWM1DCH6                          00000006
PWM1DCH7                          00000007
PWM1DCIE                          00000001
PWM1DCIF                          00000001
PWM1DCL                           00000D93
PWM1DCL0                          00000000
PWM1DCL1                          00000001
PWM1DCL2                          00000002
PWM1DCL3                          00000003
PWM1DCL4                          00000004
PWM1DCL5                          00000005
PWM1DCL6                          00000006
PWM1DCL7                          00000007
PWM1EN                            00000007
PWM1EN_A                          00000000
PWM1IE                            00000004
PWM1IF                            00000004
PWM1INTCON                        00000D9C
PWM1INTE                          00000D9C
PWM1INTF                          00000D9D
PWM1INTFLG                        00000D9D
PWM1LD                            00000007
PWM1LDA_A                         00000000
PWM1LDCON                         00000D9F
PWM1LDM                           00000006
PWM1LDS0                          00000000
PWM1LDS1                          00000001
PWM1MODE0                         00000002
PWM1MODE1                         00000003
PWM1OE                            00000006
PWM1OF                            00000D97
PWM1OFCON                         00000DA0
PWM1OFH                           00000D98
PWM1OFH0                          00000000
PWM1OFH1                          00000001
PWM1OFH2                          00000002
PWM1OFH3                          00000003
PWM1OFH4                          00000004
PWM1OFH5                          00000005
MPASM 5.83  /HOME/JACQUES/GITHUB/BREAKOUT_15   3-6-2019  10:56:55         PAGE 44


SYMBOL TABLE
  LABEL                             VALUE 

PWM1OFH6                          00000006
PWM1OFH7                          00000007
PWM1OFIE                          00000003
PWM1OFIF                          00000003
PWM1OFL                           00000D97
PWM1OFL0                          00000000
PWM1OFL1                          00000001
PWM1OFL2                          00000002
PWM1OFL3                          00000003
PWM1OFL4                          00000004
PWM1OFL5                          00000005
PWM1OFL6                          00000006
PWM1OFL7                          00000007
PWM1OFM0                          00000005
PWM1OFM1                          00000006
PWM1OFMC                          00000004
PWM1OFS0                          00000000
PWM1OFS1                          00000001
PWM1OUT                           00000005
PWM1OUT_A                         00000000
PWM1PH                            00000D91
PWM1PHH                           00000D92
PWM1PHH0                          00000000
PWM1PHH1                          00000001
PWM1PHH2                          00000002
PWM1PHH3                          00000003
PWM1PHH4                          00000004
PWM1PHH5                          00000005
PWM1PHH6                          00000006
PWM1PHH7                          00000007
PWM1PHIE                          00000002
PWM1PHIF                          00000002
PWM1PHL                           00000D91
PWM1PHL0                          00000000
PWM1PHL1                          00000001
PWM1PHL2                          00000002
PWM1PHL3                          00000003
PWM1PHL4                          00000004
PWM1PHL5                          00000005
PWM1PHL6                          00000006
PWM1PHL7                          00000007
PWM1POL                           00000004
PWM1PR                            00000D95
PWM1PRH                           00000D96
PWM1PRH0                          00000000
PWM1PRH1                          00000001
PWM1PRH2                          00000002
PWM1PRH3                          00000003
PWM1PRH4                          00000004
PWM1PRH5                          00000005
PWM1PRH6                          00000006
PWM1PRH7                          00000007
PWM1PRIE                          00000000
MPASM 5.83  /HOME/JACQUES/GITHUB/BREAKOUT_15   3-6-2019  10:56:55         PAGE 45


SYMBOL TABLE
  LABEL                             VALUE 

PWM1PRIF                          00000000
PWM1PRL                           00000D95
PWM1PRL0                          00000000
PWM1PRL1                          00000001
PWM1PRL2                          00000002
PWM1PRL3                          00000003
PWM1PRL4                          00000004
PWM1PRL5                          00000005
PWM1PRL6                          00000006
PWM1PRL7                          00000007
PWM1PS0                           00000004
PWM1PS1                           00000005
PWM1PS2                           00000006
PWM1TMR                           00000D99
PWM1TMRH                          00000D9A
PWM1TMRH0                         00000000
PWM1TMRH1                         00000001
PWM1TMRH2                         00000002
PWM1TMRH3                         00000003
PWM1TMRH4                         00000004
PWM1TMRH5                         00000005
PWM1TMRH6                         00000006
PWM1TMRH7                         00000007
PWM1TMRL                          00000D99
PWM1TMRL0                         00000000
PWM1TMRL1                         00000001
PWM1TMRL2                         00000002
PWM1TMRL3                         00000003
PWM1TMRL4                         00000004
PWM1TMRL5                         00000005
PWM1TMRL6                         00000006
PWM1TMRL7                         00000007
PWM2CLKCON                        00000DAE
PWM2CON                           00000DAB
PWM2CS0                           00000000
PWM2CS1                           00000001
PWM2DC                            00000DA3
PWM2DCH                           00000DA4
PWM2DCH0                          00000000
PWM2DCH1                          00000001
PWM2DCH2                          00000002
PWM2DCH3                          00000003
PWM2DCH4                          00000004
PWM2DCH5                          00000005
PWM2DCH6                          00000006
PWM2DCH7                          00000007
PWM2DCIE                          00000001
PWM2DCIF                          00000001
PWM2DCL                           00000DA3
PWM2DCL0                          00000000
PWM2DCL1                          00000001
PWM2DCL2                          00000002
PWM2DCL3                          00000003
MPASM 5.83  /HOME/JACQUES/GITHUB/BREAKOUT_15   3-6-2019  10:56:55         PAGE 46


SYMBOL TABLE
  LABEL                             VALUE 

PWM2DCL4                          00000004
PWM2DCL5                          00000005
PWM2DCL6                          00000006
PWM2DCL7                          00000007
PWM2EN                            00000007
PWM2EN_A                          00000001
PWM2IE                            00000005
PWM2IF                            00000005
PWM2INTCON                        00000DAC
PWM2INTE                          00000DAC
PWM2INTF                          00000DAD
PWM2INTFLG                        00000DAD
PWM2LD                            00000007
PWM2LDA_A                         00000001
PWM2LDCON                         00000DAF
PWM2LDM                           00000006
PWM2LDS0                          00000000
PWM2LDS1                          00000001
PWM2MODE0                         00000002
PWM2MODE1                         00000003
PWM2OE                            00000006
PWM2OF                            00000DA7
PWM2OFCON                         00000DB0
PWM2OFH                           00000DA8
PWM2OFH0                          00000000
PWM2OFH1                          00000001
PWM2OFH2                          00000002
PWM2OFH3                          00000003
PWM2OFH4                          00000004
PWM2OFH5                          00000005
PWM2OFH6                          00000006
PWM2OFH7                          00000007
PWM2OFIE                          00000003
PWM2OFIF                          00000003
PWM2OFL                           00000DA7
PWM2OFL0                          00000000
PWM2OFL1                          00000001
PWM2OFL2                          00000002
PWM2OFL3                          00000003
PWM2OFL4                          00000004
PWM2OFL5                          00000005
PWM2OFL6                          00000006
PWM2OFL7                          00000007
PWM2OFM0                          00000005
PWM2OFM1                          00000006
PWM2OFMC                          00000004
PWM2OFS0                          00000000
PWM2OFS1                          00000001
PWM2OUT                           00000005
PWM2OUT_A                         00000001
PWM2PH                            00000DA1
PWM2PHH                           00000DA2
PWM2PHH0                          00000000
MPASM 5.83  /HOME/JACQUES/GITHUB/BREAKOUT_15   3-6-2019  10:56:55         PAGE 47


SYMBOL TABLE
  LABEL                             VALUE 

PWM2PHH1                          00000001
PWM2PHH2                          00000002
PWM2PHH3                          00000003
PWM2PHH4                          00000004
PWM2PHH5                          00000005
PWM2PHH6                          00000006
PWM2PHH7                          00000007
PWM2PHIE                          00000002
PWM2PHIF                          00000002
PWM2PHL                           00000DA1
PWM2PHL0                          00000000
PWM2PHL1                          00000001
PWM2PHL2                          00000002
PWM2PHL3                          00000003
PWM2PHL4                          00000004
PWM2PHL5                          00000005
PWM2PHL6                          00000006
PWM2PHL7                          00000007
PWM2POL                           00000004
PWM2PR                            00000DA5
PWM2PRH                           00000DA6
PWM2PRH0                          00000000
PWM2PRH1                          00000001
PWM2PRH2                          00000002
PWM2PRH3                          00000003
PWM2PRH4                          00000004
PWM2PRH5                          00000005
PWM2PRH6                          00000006
PWM2PRH7                          00000007
PWM2PRIE                          00000000
PWM2PRIF                          00000000
PWM2PRL                           00000DA5
PWM2PRL0                          00000000
PWM2PRL1                          00000001
PWM2PRL2                          00000002
PWM2PRL3                          00000003
PWM2PRL4                          00000004
PWM2PRL5                          00000005
PWM2PRL6                          00000006
PWM2PRL7                          00000007
PWM2PS0                           00000004
PWM2PS1                           00000005
PWM2PS2                           00000006
PWM2TMR                           00000DA9
PWM2TMRH                          00000DAA
PWM2TMRH0                         00000000
PWM2TMRH1                         00000001
PWM2TMRH2                         00000002
PWM2TMRH3                         00000003
PWM2TMRH4                         00000004
PWM2TMRH5                         00000005
PWM2TMRH6                         00000006
PWM2TMRH7                         00000007
MPASM 5.83  /HOME/JACQUES/GITHUB/BREAKOUT_15   3-6-2019  10:56:55         PAGE 48


SYMBOL TABLE
  LABEL                             VALUE 

PWM2TMRL                          00000DA9
PWM2TMRL0                         00000000
PWM2TMRL1                         00000001
PWM2TMRL2                         00000002
PWM2TMRL3                         00000003
PWM2TMRL4                         00000004
PWM2TMRL5                         00000005
PWM2TMRL6                         00000006
PWM2TMRL7                         00000007
PWM3CLKCON                        00000DBE
PWM3CON                           00000DBB
PWM3CS0                           00000000
PWM3CS1                           00000001
PWM3DC                            00000DB3
PWM3DCH                           00000DB4
PWM3DCH0                          00000000
PWM3DCH1                          00000001
PWM3DCH2                          00000002
PWM3DCH3                          00000003
PWM3DCH4                          00000004
PWM3DCH5                          00000005
PWM3DCH6                          00000006
PWM3DCH7                          00000007
PWM3DCIE                          00000001
PWM3DCIF                          00000001
PWM3DCL                           00000DB3
PWM3DCL0                          00000000
PWM3DCL1                          00000001
PWM3DCL2                          00000002
PWM3DCL3                          00000003
PWM3DCL4                          00000004
PWM3DCL5                          00000005
PWM3DCL6                          00000006
PWM3DCL7                          00000007
PWM3EN                            00000007
PWM3EN_A                          00000002
PWM3IE                            00000006
PWM3IF                            00000006
PWM3INTCON                        00000DBC
PWM3INTE                          00000DBC
PWM3INTF                          00000DBD
PWM3INTFLG                        00000DBD
PWM3LD                            00000007
PWM3LDA_A                         00000002
PWM3LDCON                         00000DBF
PWM3LDM                           00000006
PWM3LDS0                          00000000
PWM3LDS1                          00000001
PWM3MODE0                         00000002
PWM3MODE1                         00000003
PWM3OE                            00000006
PWM3OF                            00000DB7
PWM3OFCON                         00000DC0
MPASM 5.83  /HOME/JACQUES/GITHUB/BREAKOUT_15   3-6-2019  10:56:55         PAGE 49


SYMBOL TABLE
  LABEL                             VALUE 

PWM3OFH                           00000DB8
PWM3OFH0                          00000000
PWM3OFH1                          00000001
PWM3OFH2                          00000002
PWM3OFH3                          00000003
PWM3OFH4                          00000004
PWM3OFH5                          00000005
PWM3OFH6                          00000006
PWM3OFH7                          00000007
PWM3OFIE                          00000003
PWM3OFIF                          00000003
PWM3OFL                           00000DB7
PWM3OFL0                          00000000
PWM3OFL1                          00000001
PWM3OFL2                          00000002
PWM3OFL3                          00000003
PWM3OFL4                          00000004
PWM3OFL5                          00000005
PWM3OFL6                          00000006
PWM3OFL7                          00000007
PWM3OFM0                          00000005
PWM3OFM1                          00000006
PWM3OFMC                          00000004
PWM3OFS0                          00000000
PWM3OFS1                          00000001
PWM3OUT                           00000005
PWM3OUT_A                         00000002
PWM3PH                            00000DB1
PWM3PHH                           00000DB2
PWM3PHH0                          00000000
PWM3PHH1                          00000001
PWM3PHH2                          00000002
PWM3PHH3                          00000003
PWM3PHH4                          00000004
PWM3PHH5                          00000005
PWM3PHH6                          00000006
PWM3PHH7                          00000007
PWM3PHIE                          00000002
PWM3PHIF                          00000002
PWM3PHL                           00000DB1
PWM3PHL0                          00000000
PWM3PHL1                          00000001
PWM3PHL2                          00000002
PWM3PHL3                          00000003
PWM3PHL4                          00000004
PWM3PHL5                          00000005
PWM3PHL6                          00000006
PWM3PHL7                          00000007
PWM3POL                           00000004
PWM3PR                            00000DB5
PWM3PRH                           00000DB6
PWM3PRH0                          00000000
PWM3PRH1                          00000001
MPASM 5.83  /HOME/JACQUES/GITHUB/BREAKOUT_15   3-6-2019  10:56:55         PAGE 50


SYMBOL TABLE
  LABEL                             VALUE 

PWM3PRH2                          00000002
PWM3PRH3                          00000003
PWM3PRH4                          00000004
PWM3PRH5                          00000005
PWM3PRH6                          00000006
PWM3PRH7                          00000007
PWM3PRIE                          00000000
PWM3PRIF                          00000000
PWM3PRL                           00000DB5
PWM3PRL0                          00000000
PWM3PRL1                          00000001
PWM3PRL2                          00000002
PWM3PRL3                          00000003
PWM3PRL4                          00000004
PWM3PRL5                          00000005
PWM3PRL6                          00000006
PWM3PRL7                          00000007
PWM3PS0                           00000004
PWM3PS1                           00000005
PWM3PS2                           00000006
PWM3TMR                           00000DB9
PWM3TMRH                          00000DBA
PWM3TMRH0                         00000000
PWM3TMRH1                         00000001
PWM3TMRH2                         00000002
PWM3TMRH3                         00000003
PWM3TMRH4                         00000004
PWM3TMRH5                         00000005
PWM3TMRH6                         00000006
PWM3TMRH7                         00000007
PWM3TMRL                          00000DB9
PWM3TMRL0                         00000000
PWM3TMRL1                         00000001
PWM3TMRL2                         00000002
PWM3TMRL3                         00000003
PWM3TMRL4                         00000004
PWM3TMRL5                         00000005
PWM3TMRL6                         00000006
PWM3TMRL7                         00000007
PWMEN                             00000D8E
PWMLD                             00000D8F
PWMOUT                            00000D90
RA0                               00000000
RA1                               00000001
RA2                               00000002
RA3                               00000003
RA4                               00000004
RA5                               00000005
RCIDL                             00000006
RCIE                              00000005
RCIF                              00000005
RCREG                             00000199
RCSTA                             0000019D
MPASM 5.83  /HOME/JACQUES/GITHUB/BREAKOUT_15   3-6-2019  10:56:55         PAGE 51


SYMBOL TABLE
  LABEL                             VALUE 

RD                                00000000
RX9                               00000006
RX9D                              00000000
RXDTSEL                           00000007
SBOREN                            00000007
SCKP                              00000004
SCS0                              00000000
SCS1                              00000001
SENDB                             00000003
SLRA0                             00000000
SLRA1                             00000001
SLRA2                             00000002
SLRA4                             00000004
SLRA5                             00000005
SLRCONA                           0000030C
SP                                FSR0
SPBRG                             0000019B
SPBRGH                            0000019C
SPBRGL                            0000019B
SPEN                              00000007
SPLLEN                            00000007
SREN                              00000005
STACK_SIZE                        00000010
START                             00000000
START_BTN                         00000003
STATUS                            00000003
STATUS_SHAD                       00000FE4
STKOVF                            00000007
STKPTR                            00000FED
STKUNF                            00000006
SWDTEN                            00000000
SYNC                              00000004
SYNC_OUT                          00000002
T                                 INDF0
T0CS                              00000005
T0IE                              00000005
T0IF                              00000002
T0SE                              00000004
T1CKPS0                           00000004
T1CKPS1                           00000005
T1CON                             00000018
T1GCON                            00000019
T1GGO                             00000003
T1GGO_NOT_DONE                    00000003
T1GPOL                            00000006
T1GSEL                            00000003
T1GSPM                            00000004
T1GSS0                            00000000
T1GSS1                            00000001
T1GTM                             00000005
T1GVAL                            00000002
T2CKPS0                           00000000
T2CKPS1                           00000001
MPASM 5.83  /HOME/JACQUES/GITHUB/BREAKOUT_15   3-6-2019  10:56:55         PAGE 52


SYMBOL TABLE
  LABEL                             VALUE 

T2CON                             0000001C
T2OUTPS0                          00000003
T2OUTPS1                          00000004
T2OUTPS2                          00000005
T2OUTPS3                          00000006
TMR0                              00000015
TMR0CS                            00000005
TMR0IE                            00000005
TMR0IF                            00000002
TMR0SE                            00000004
TMR1                              00000016
TMR1CS0                           00000006
TMR1CS1                           00000007
TMR1GE                            00000007
TMR1GIE                           00000007
TMR1GIF                           00000007
TMR1H                             00000017
TMR1IE                            00000000
TMR1IF                            00000000
TMR1L                             00000016
TMR1ON                            00000000
TMR2                              0000001A
TMR2IE                            00000001
TMR2IF                            00000001
TMR2ON                            00000002
TOS                               00000FEE
TOSH                              00000FEF
TOSL                              00000FEE
TRIGSEL0                          00000004
TRIGSEL1                          00000005
TRIGSEL2                          00000006
TRIGSEL3                          00000007
TRISA                             0000008C
TRISA0                            00000000
TRISA1                            00000001
TRISA2                            00000002
TRISA3                            00000003
TRISA4                            00000004
TRISA5                            00000005
TRMT                              00000001
TSEN                              00000005
TSRNG                             00000004
TUN0                              00000000
TUN1                              00000001
TUN2                              00000002
TUN3                              00000003
TUN4                              00000004
TUN5                              00000005
TX9                               00000006
TX9D                              00000000
TXCKSEL                           00000002
TXEN                              00000005
TXIE                              00000004
MPASM 5.83  /HOME/JACQUES/GITHUB/BREAKOUT_15   3-6-2019  10:56:55         PAGE 53


SYMBOL TABLE
  LABEL                             VALUE 

TXIF                              00000004
TXREG                             0000019A
TXSTA                             0000019E
VIDEO_OUT                         00000004
VREGCON                           00000197
VREGPM                            00000001
VSYNC_PULSE                       00000308
W                                 00000000
WDTCON                            00000097
WDTPS0                            00000001
WDTPS1                            00000002
WDTPS2                            00000003
WDTPS3                            00000004
WDTPS4                            00000005
WPUA                              0000020C
WPUA0                             00000000
WPUA1                             00000001
WPUA2                             00000002
WPUA3                             00000003
WPUA4                             00000004
WPUA5                             00000005
WR                                00000001
WREG                              00000009
WREG_SHAD                         00000FE5
WREN                              00000002
WRERR                             00000003
WUE                               00000001
Z                                 00000002
Z_SHAD                            00000002
_BOREN_NSLEEP                     00003DFF
_BOREN_OFF                        000039FF
_BOREN_ON                         00003FFF
_BOREN_SBODEN                     00003BFF
_BORV_19                          00003FFF
_BORV_HI                          00003BFF
_BORV_LO                          00003FFF
_CLKOUTEN_OFF                     00003FFF
_CLKOUTEN_ON                      000037FF
_CONFIG1                          00008007
_CONFIG2                          00008008
_CP_OFF                           00003FFF
_CP_ON                            00003F7F
_DEVID1                           00008006
_FOSC_ECH                         00003FFF
_FOSC_ECL                         00003FFD
_FOSC_ECM                         00003FFE
_FOSC_INTOSC                      00003FFC
_IDLOC0                           00008000
_IDLOC1                           00008001
_IDLOC2                           00008002
_IDLOC3                           00008003
_ISR_0008                         00000008
_ISR_000D                         0000000D
MPASM 5.83  /HOME/JACQUES/GITHUB/BREAKOUT_15   3-6-2019  10:56:55         PAGE 54


SYMBOL TABLE
  LABEL                             VALUE 

_ISR_0084                         00000084
_ISR_008B                         0000008B
_ISR_00C5                         000000C5
_ISR_00C9                         000000C9
_ISR_00CA                         000000CA
_ISR_00CE                         000000CE
_ISR_00ED                         000000ED
_ISR_00EE                         000000EE
_ISR_00F5                         000000F5
_ISR_00FC                         000000FC
_ISR_00FD                         000000FD
_ISR_0118                         00000118
_ISR_0119                         00000119
_ISR_011F                         0000011F
_ISR_0127                         00000127
_ISR_012E                         0000012E
_ISR_0134                         00000134
_ISR_0135                         00000135
_ISR_013B                         0000013B
_ISR_0142                         00000142
_ISR_0146                         00000146
_ISR_014B                         0000014B
_ISR_0152                         00000152
_ISR_0170                         00000170
_ISR_0171                         00000171
_ISR_0182                         00000182
_ISR_018C                         0000018C
_ISR_019E                         0000019E
_ISR_019F                         0000019F
_ISR_01B0                         000001B0
_ISR_01BA                         000001BA
_ISR_01CC                         000001CC
_ISR_01CD                         000001CD
_ISR_01DE                         000001DE
_ISR_01E8                         000001E8
_ISR_01FA                         000001FA
_ISR_01FB                         000001FB
_ISR_020C                         0000020C
_ISR_0216                         00000216
_ISR_0226                         00000226
_ISR_0237                         00000237
_ISR_0241                         00000241
_ISR_0251                         00000251
_ISR_0254                         00000254
_ISR_0255                         00000255
_ISR_0265                         00000265
_ISR_0266                         00000266
_ISR_0269                         00000269
_ISR_026B                         0000026B
_ISR_0270                         00000270
_ISR_0271                         00000271
_ISR_02CE                         000002CE
_LPBOREN_OFF                      00003FFF
MPASM 5.83  /HOME/JACQUES/GITHUB/BREAKOUT_15   3-6-2019  10:56:55         PAGE 55


SYMBOL TABLE
  LABEL                             VALUE 

_LPBOREN_ON                       000037FF
_LVP_OFF                          00001FFF
_LVP_ON                           00003FFF
_MAIN_PROG_0006                   00000006
_MAIN_PROG_000D                   0000000D
_MAIN_PROG_0056                   00000056
_MAIN_PROG_005A                   0000005A
_MCLRE_OFF                        00003FBF
_MCLRE_ON                         00003FFF
_PLLEN_OFF                        00003EFF
_PLLEN_ON                         00003FFF
_PWRTE_OFF                        00003FFF
_PWRTE_ON                         00003FDF
_STVREN_OFF                       00003DFF
_STVREN_ON                        00003FFF
_WDTE_NSLEEP                      00003FF7
_WDTE_OFF                         00003FE7
_WDTE_ON                          00003FFF
_WDTE_SWDTEN                      00003FEF
_WRT_ALL                          00003FFC
_WRT_BOOT                         00003FFE
_WRT_HALF                         00003FFD
_WRT_OFF                          00003FFF
__12F1572                         00000001
__DEBUG                           
__MPLAB_DEBUGGER_SIMULATOR        1
ball_dx                           00000009
ball_dy                           0000000A
ball_left                         00000143
ball_speed                        0000000B
ball_timer                        0000000E
ball_x                            00000007
ball_y                            00000008
balls                             000000A3
bcd_add                           0000029C
black                             
brick_wall                        00000030
case                              
chroma_invert                     
chroma_off                        
chroma_on                         
chroma_ref                        
cyan                              
d1                                000000A0
d2                                000000A1
d3                                000000A2
dark_blue                         
digit_offset                      000002B9
digit_row                         000000DE
digits                            0000005B
draw_border                       
draw_brick                        
draw_empty                        0000024F
MPASM 5.83  /HOME/JACQUES/GITHUB/BREAKOUT_15   3-6-2019  10:56:55         PAGE 56


SYMBOL TABLE
  LABEL                             VALUE 

draw_paddle                       00000263
draw_row1                         00000169
draw_row2                         00000197
draw_row3                         000001C5
draw_row4                         000001F3
draw_row5                         00000221
draw_score                        000000A8
draw_top_wall                     000000F1
draw_void                         0000010B
draw_void_exit                    00000155
draw_wall                         
dropn                             
eeprom                            00000780
even_field                        0000028A
field_end                         00000294
flags                             00000000
green                             
hi_line                           00000283
ibw                               000002C6
inc_score                         000002A7
init_brick_wall                   000002BF
isr                               00000004
isr_exit                          00000029
lcount                            00000001
leave                             
max_score                         00000780
move_ball                         0000009D
next_task                         
no_ball                           00000116
no_wall_draw                      0000015F
paddle_pos                        00000006
pickn                             
pokew                             
popw                              
porch_off                         
porch_on                          
post_last                         00000064
post_vsync                        0000005B
pre_vsync                         0000002E
pushw                             
q                                 0000000A
r                                 00000002
read_paddle                       0000007E
row1                              00000030
row2                              00000031
row3                              00000032
row3_exit                         000001E9
row4                              00000033
row5                              00000034
score                             0000000C
score_exit                        000000D4
set_presync                       0000003B
set_vsync                         00000053
MPASM 5.83  /HOME/JACQUES/GITHUB/BREAKOUT_15   3-6-2019  10:56:55         PAGE 57


SYMBOL TABLE
  LABEL                             VALUE 

slice                             00000002
sound                             00000091
sound_timer                       000000A4
stack                             00000020
swap_var                          
swapw                             
t0delay                           000002CA
task                              00000003
task_switch                       00000012
tdelay                            
temp                              00000004
test_loop                         00000051
top_wall_exit                     00000101
user_input                        00000076
video_first                       000000A0
vsync                             00000046
vsync_end                         00000068
wait_field_end                    0000027D
white                             
yellow                            
yes_ball                          00000132

Errors   :     0
Warnings :     0 reported,     1 suppressed
Messages :     0 reported,   248 suppressed

